(lp1
(lp2
F0
aa(lp3
F0
aa(lp4
F0
aa(lp5
F0
aa(lp6
F0
aa(lp7
F0
aa(lp8
F0
aa(lp9
F0
aa(lp10
F72.299999999999997
aa(lp11
F383.89999999999998
aa(lp12
F703.39999999999998
aa(lp13
F1614.7
aa(lp14
F2206.4000000000001
aa(lp15
F2728.9000000000001
aa(lp16
F2969.5999999999999
aa(lp17
F3152.8000000000002
aa(lp18
F2744.3000000000002
aa(lp19
F2426.8000000000002
aa(lp20
F2203.4000000000001
aa(lp21
F1373.5
aa(lp22
F518.70000000000005
aa(lp23
F1.8999999999999999
aa(lp24
F0
aa(lp25
F0
aa(lp26
F0
aa(lp27
F0
aa(lp28
F0
aa(lp29
F0
aa(lp30
F0
aa(lp31
F0
aa(lp32
F0
aa(lp33
F0
aa(lp34
F230.59999999999999
aa(lp35
F982.60000000000002
aa(lp36
F1837.5
aa(lp37
F2571.5999999999999
aa(lp38
F3221
aa(lp39
F3034.9000000000001
aa(lp40
F3296.4000000000001
aa(lp41
F3347.6999999999998
aa(lp42
F2661.3000000000002
aa(lp43
F2308.6999999999998
aa(lp44
F2254.1999999999998
aa(lp45
F998.89999999999998
aa(lp46
F462.60000000000002
aa(lp47
F4.9000000000000004
aa(lp48
F0
aa(lp49
F0
aa(lp50
F0
aa(lp51
F0
aa(lp52
F0
aa(lp53
F0
aa(lp54
F0
aa(lp55
F0
aa(lp56
F0
aa(lp57
F0
aa(lp58
F211.80000000000001
aa(lp59
F927.39999999999998
aa(lp60
F1789.5999999999999
aa(lp61
F2563.1999999999998
aa(lp62
F3164.0999999999999
aa(lp63
F3126.3000000000002
aa(lp64
F3642.3000000000002
aa(lp65
F3815.0999999999999
aa(lp66
F3456.3000000000002
aa(lp67
F2919.9000000000001
aa(lp68
F2172.8000000000002
aa(lp69
F1314.3
aa(lp70
F482.5
aa(lp71
F4.7000000000000002
aa(lp72
F0
aa(lp73
F0
aa(lp74
F0
aa(lp75
F0
aa(lp76
F0
aa(lp77
F0
aa(lp78
F0
aa(lp79
F0
aa(lp80
F0
aa(lp81
F0
aa(lp82
F126.5
aa(lp83
F878.5
aa(lp84
F1751.2
aa(lp85
F2430.3000000000002
aa(lp86
F2948.5
aa(lp87
F3651.9000000000001
aa(lp88
F3810.8000000000002
aa(lp89
F1595.0999999999999
aa(lp90
F1439.5
aa(lp91
F2630
aa(lp92
F1800.5
aa(lp93
F961.39999999999998
aa(lp94
F457.60000000000002
aa(lp95
F2.2000000000000002
aa(lp96
F0
aa(lp97
F0
aa(lp98
F0
aa(lp99
F0
aa(lp100
F0
aa(lp101
F0
aa(lp102
F0
aa(lp103
F0
aa(lp104
F0
aa(lp105
F0
aa(lp106
F161.40000000000001
aa(lp107
F450.69999999999999
aa(lp108
F1492.7
aa(lp109
F2107.5
aa(lp110
F2540.1999999999998
aa(lp111
F2846.1999999999998
aa(lp112
F3698.5999999999999
aa(lp113
F3590.3000000000002
aa(lp114
F3367.1999999999998
aa(lp115
F2424.9000000000001
aa(lp116
F602.20000000000005
aa(lp117
F411.69999999999999
aa(lp118
F238.19999999999999
aa(lp119
F6.4000000000000004
aa(lp120
F0
aa(lp121
F0
aa(lp122
F0
aa(lp123
F0
aa(lp124
F0
aa(lp125
F0
aa(lp126
F0
aa(lp127
F0
aa(lp128
F0
aa(lp129
F0
aa(lp130
F185.19999999999999
aa(lp131
F889.39999999999998
aa(lp132
F1652.7
aa(lp133
F2597.0999999999999
aa(lp134
F3114.0999999999999
aa(lp135
F3559.5999999999999
aa(lp136
F3724.3000000000002
aa(lp137
F3569
aa(lp138
F2237.8000000000002
aa(lp139
F1934.0999999999999
aa(lp140
F1219.9000000000001
aa(lp141
F556.70000000000005
aa(lp142
F354.60000000000002
aa(lp143
F2.3999999999999999
aa(lp144
F0
aa(lp145
F0
aa(lp146
F0
aa(lp147
F0
aa(lp148
F0
aa(lp149
F0
aa(lp150
F0
aa(lp151
F0
aa(lp152
F0
aa(lp153
F0
aa(lp154
F161.80000000000001
aa(lp155
F809.60000000000002
aa(lp156
F1666.4000000000001
aa(lp157
F2438.1999999999998
aa(lp158
F3071.0999999999999
aa(lp159
F3471.3000000000002
aa(lp160
F3715.5999999999999
aa(lp161
F3676.9000000000001
aa(lp162
F2968.8000000000002
aa(lp163
F1711.9000000000001
aa(lp164
F574.10000000000002
aa(lp165
F138.40000000000001
aa(lp166
F127.2
aa(lp167
F6.7000000000000002
aa(lp168
F0
aa(lp169
F0
aa(lp170
F0
aa(lp171
F0
aa(lp172
F0
aa(lp173
F0
aa(lp174
F0
aa(lp175
F0
aa(lp176
F0
aa(lp177
F0
aa(lp178
F139.59999999999999
aa(lp179
F776.79999999999995
aa(lp180
F1603.4000000000001
aa(lp181
F2363.0999999999999
aa(lp182
F2991.6999999999998
aa(lp183
F3088.4000000000001
aa(lp184
F3109.5999999999999
aa(lp185
F2205.5
aa(lp186
F869.60000000000002
aa(lp187
F756
aa(lp188
F1216.8
aa(lp189
F769.20000000000005
aa(lp190
F16.199999999999999
aa(lp191
F3.2999999999999998
aa(lp192
F0
aa(lp193
F0
aa(lp194
F0
aa(lp195
F0
aa(lp196
F0
aa(lp197
F0
aa(lp198
F0
aa(lp199
F0
aa(lp200
F0
aa(lp201
F0
aa(lp202
F164.80000000000001
aa(lp203
F489.60000000000002
aa(lp204
F1424.0999999999999
aa(lp205
F1948.8
aa(lp206
F2600
aa(lp207
F3267.3000000000002
aa(lp208
F2695.5
aa(lp209
F2524.3000000000002
aa(lp210
F3042.1999999999998
aa(lp211
F2429.0999999999999
aa(lp212
F1525.7
aa(lp213
F399.10000000000002
aa(lp214
F594.20000000000005
aa(lp215
F2.7999999999999998
aa(lp216
F0
aa(lp217
F0
aa(lp218
F0
aa(lp219
F0
aa(lp220
F0
aa(lp221
F0
aa(lp222
F0
aa(lp223
F0
aa(lp224
F0
aa(lp225
F0
aa(lp226
F152.30000000000001
aa(lp227
F879.89999999999998
aa(lp228
F1675
aa(lp229
F2521.6999999999998
aa(lp230
F3083.4000000000001
aa(lp231
F2566.6999999999998
aa(lp232
F3531.1999999999998
aa(lp233
F3252.0999999999999
aa(lp234
F1337.7
aa(lp235
F1880.7
aa(lp236
F1252.7
aa(lp237
F1339.9000000000001
aa(lp238
F240.19999999999999
aa(lp239
F3.5
aa(lp240
F0
aa(lp241
F0
aa(lp242
F0
aa(lp243
F0
aa(lp244
F0
aa(lp245
F0
aa(lp246
F0
aa(lp247
F0
aa(lp248
F0
aa(lp249
F0
aa(lp250
F215.09999999999999
aa(lp251
F488.89999999999998
aa(lp252
F1119.4000000000001
aa(lp253
F1638.5
aa(lp254
F2515
aa(lp255
F1509.3
aa(lp256
F1330.2
aa(lp257
F2474
aa(lp258
F2347.9000000000001
aa(lp259
F1695.7
aa(lp260
F773.39999999999998
aa(lp261
F874.39999999999998
aa(lp262
F276.30000000000001
aa(lp263
F6.4000000000000004
aa(lp264
F0
aa(lp265
F0
aa(lp266
F0
aa(lp267
F0
aa(lp268
F0
aa(lp269
F0
aa(lp270
F0
aa(lp271
F0
aa(lp272
F0
aa(lp273
F0
aa(lp274
F8.6999999999999993
aa(lp275
F81.700000000000003
aa(lp276
F141.5
aa(lp277
F396.69999999999999
aa(lp278
F517.60000000000002
aa(lp279
F670.10000000000002
aa(lp280
F961.89999999999998
aa(lp281
F996.29999999999995
aa(lp282
F790.29999999999995
aa(lp283
F625.29999999999995
aa(lp284
F489.19999999999999
aa(lp285
F396.89999999999998
aa(lp286
F119.8
aa(lp287
F8.5
aa(lp288
F0
aa(lp289
F0
aa(lp290
F0
aa(lp291
F0
aa(lp292
F0
aa(lp293
F0
aa(lp294
F0
aa(lp295
F0
aa(lp296
F0
aa(lp297
F0
aa(lp298
F17.600000000000001
aa(lp299
F108.2
aa(lp300
F457.30000000000001
aa(lp301
F882.5
aa(lp302
F978
aa(lp303
F765.29999999999995
aa(lp304
F938.39999999999998
aa(lp305
F1693.4000000000001
aa(lp306
F1278.4000000000001
aa(lp307
F1103.5999999999999
aa(lp308
F966.39999999999998
aa(lp309
F549
aa(lp310
F222.59999999999999
aa(lp311
F7
aa(lp312
F0
aa(lp313
F0
aa(lp314
F0
aa(lp315
F0
aa(lp316
F0
aa(lp317
F0
aa(lp318
F0
aa(lp319
F0
aa(lp320
F0
aa(lp321
F0
aa(lp322
F22.300000000000001
aa(lp323
F221.69999999999999
aa(lp324
F283.80000000000001
aa(lp325
F452.30000000000001
aa(lp326
F1398.5
aa(lp327
F2591.6999999999998
aa(lp328
F1975.0999999999999
aa(lp329
F3402.9000000000001
aa(lp330
F766.29999999999995
aa(lp331
F1740.5
aa(lp332
F974.70000000000005
aa(lp333
F774.29999999999995
aa(lp334
F357.5
aa(lp335
F7.4000000000000004
aa(lp336
F0
aa(lp337
F0
aa(lp338
F0
aa(lp339
F0
aa(lp340
F0
aa(lp341
F0
aa(lp342
F0
aa(lp343
F0
aa(lp344
F0
aa(lp345
F0
aa(lp346
F85.400000000000006
aa(lp347
F364
aa(lp348
F1139.9000000000001
aa(lp349
F1017.2
aa(lp350
F1046.7
aa(lp351
F2308.6999999999998
aa(lp352
F2030.5999999999999
aa(lp353
F2922.8000000000002
aa(lp354
F2026.2
aa(lp355
F2788.4000000000001
aa(lp356
F2031.4000000000001
aa(lp357
F1339.5999999999999
aa(lp358
F565.20000000000005
aa(lp359
F6.0999999999999996
aa(lp360
F0
aa(lp361
F0
aa(lp362
F0
aa(lp363
F0
aa(lp364
F0
aa(lp365
F0
aa(lp366
F0
aa(lp367
F0
aa(lp368
F0
aa(lp369
F0
aa(lp370
F127.59999999999999
aa(lp371
F832.60000000000002
aa(lp372
F1695
aa(lp373
F2598.3000000000002
aa(lp374
F3076.3000000000002
aa(lp375
F3496.5999999999999
aa(lp376
F3701.5
aa(lp377
F3274.9000000000001
aa(lp378
F2066.5
aa(lp379
F2863.1999999999998
aa(lp380
F1242.7
aa(lp381
F1000.9
aa(lp382
F550.79999999999995
aa(lp383
F2.1000000000000001
aa(lp384
F0
aa(lp385
F0
aa(lp386
F0
aa(lp387
F0
aa(lp388
F0
aa(lp389
F0
aa(lp390
F0
aa(lp391
F0
aa(lp392
F0
aa(lp393
F0
aa(lp394
F129.09999999999999
aa(lp395
F815.5
aa(lp396
F1655.2
aa(lp397
F2328.4000000000001
aa(lp398
F2953.5999999999999
aa(lp399
F2935.5
aa(lp400
F3506
aa(lp401
F3359.6999999999998
aa(lp402
F1034
aa(lp403
F288.10000000000002
aa(lp404
F183.09999999999999
aa(lp405
F274
aa(lp406
F379.5
aa(lp407
F1.6000000000000001
aa(lp408
F0
aa(lp409
F0
aa(lp410
F0
aa(lp411
F0
aa(lp412
F0
aa(lp413
F0
aa(lp414
F0
aa(lp415
F0
aa(lp416
F0
aa(lp417
F0
aa(lp418
F126.40000000000001
aa(lp419
F817.20000000000005
aa(lp420
F1745
aa(lp421
F1894
aa(lp422
F2856.5
aa(lp423
F1900.3
aa(lp424
F2649.5
aa(lp425
F3590.0999999999999
aa(lp426
F3211.1999999999998
aa(lp427
F2736.5999999999999
aa(lp428
F2228.1999999999998
aa(lp429
F1159
aa(lp430
F507.19999999999999
aa(lp431
F4
aa(lp432
F0
aa(lp433
F0
aa(lp434
F0
aa(lp435
F0
aa(lp436
F0
aa(lp437
F0
aa(lp438
F0
aa(lp439
F0
aa(lp440
F0
aa(lp441
F0
aa(lp442
F126.2
aa(lp443
F814.89999999999998
aa(lp444
F1685.5
aa(lp445
F2465.8000000000002
aa(lp446
F3088.5999999999999
aa(lp447
F3573
aa(lp448
F3110.8000000000002
aa(lp449
F3593.0999999999999
aa(lp450
F3415.0999999999999
aa(lp451
F2538.6999999999998
aa(lp452
F2247.0999999999999
aa(lp453
F1354.5999999999999
aa(lp454
F306.89999999999998
aa(lp455
F5
aa(lp456
F0
aa(lp457
F0
aa(lp458
F0
aa(lp459
F0
aa(lp460
F0
aa(lp461
F0
aa(lp462
F0
aa(lp463
F0
aa(lp464
F0
aa(lp465
F0
aa(lp466
F119.7
aa(lp467
F817.60000000000002
aa(lp468
F1679.3
aa(lp469
F2440.4000000000001
aa(lp470
F2965.8000000000002
aa(lp471
F3565.4000000000001
aa(lp472
F3492.8000000000002
aa(lp473
F3531.0999999999999
aa(lp474
F3334
aa(lp475
F2849.1999999999998
aa(lp476
F2357.9000000000001
aa(lp477
F1209
aa(lp478
F448.5
aa(lp479
F3.7999999999999998
aa(lp480
F0
aa(lp481
F0
aa(lp482
F0
aa(lp483
F0
aa(lp484
F0
aa(lp485
F0
aa(lp486
F0
aa(lp487
F0
aa(lp488
F0
aa(lp489
F0
aa(lp490
F77.400000000000006
aa(lp491
F524
aa(lp492
F1740.5999999999999
aa(lp493
F2464.5999999999999
aa(lp494
F2943.6999999999998
aa(lp495
F2808.3000000000002
aa(lp496
F2636.9000000000001
aa(lp497
F1968.3
aa(lp498
F872.20000000000005
aa(lp499
F2790.1999999999998
aa(lp500
F2527.1999999999998
aa(lp501
F1531
aa(lp502
F199.90000000000001
aa(lp503
F7.5
aa(lp504
F0
aa(lp505
F0
aa(lp506
F0
aa(lp507
F0
aa(lp508
F0
aa(lp509
F0
aa(lp510
F0
aa(lp511
F0
aa(lp512
F0
aa(lp513
F0
aa(lp514
F55.399999999999999
aa(lp515
F433.39999999999998
aa(lp516
F578.5
aa(lp517
F599.10000000000002
aa(lp518
F1741.8
aa(lp519
F2435.0999999999999
aa(lp520
F2094.6999999999998
aa(lp521
F3258.6999999999998
aa(lp522
F3152.5
aa(lp523
F1944.5999999999999
aa(lp524
F1441.3
aa(lp525
F974.5
aa(lp526
F277
aa(lp527
F3.3999999999999999
aa(lp528
F0
aa(lp529
F0
aa(lp530
F0
aa(lp531
F0
aa(lp532
F0
aa(lp533
F0
aa(lp534
F0
aa(lp535
F0
aa(lp536
F0
aa(lp537
F0
aa(lp538
F21.699999999999999
aa(lp539
F252.69999999999999
aa(lp540
F1485.8
aa(lp541
F2297.8000000000002
aa(lp542
F2218.6999999999998
aa(lp543
F2349.9000000000001
aa(lp544
F3355.9000000000001
aa(lp545
F2591.1999999999998
aa(lp546
F2806.5
aa(lp547
F2157.3000000000002
aa(lp548
F1746.4000000000001
aa(lp549
F1310.2
aa(lp550
F351.10000000000002
aa(lp551
F3.2999999999999998
aa(lp552
F0
aa(lp553
F0
aa(lp554
F0
aa(lp555
F0
aa(lp556
F0
aa(lp557
F0
aa(lp558
F0
aa(lp559
F0
aa(lp560
F0
aa(lp561
F0
aa(lp562
F39.100000000000001
aa(lp563
F234.69999999999999
aa(lp564
F1297.5999999999999
aa(lp565
F1620.9000000000001
aa(lp566
F2999.0999999999999
aa(lp567
F2599.3000000000002
aa(lp568
F3584.0999999999999
aa(lp569
F1940.5999999999999
aa(lp570
F1509
aa(lp571
F1972.4000000000001
aa(lp572
F1210.5
aa(lp573
F310.60000000000002
aa(lp574
F125.09999999999999
aa(lp575
F2.3999999999999999
aa(lp576
F0
aa(lp577
F0
aa(lp578
F0
aa(lp579
F0
aa(lp580
F0
aa(lp581
F0
aa(lp582
F0
aa(lp583
F0
aa(lp584
F0
aa(lp585
F0
aa(lp586
F76.200000000000003
aa(lp587
F417
aa(lp588
F1020.8
aa(lp589
F1093.3
aa(lp590
F2504.4000000000001
aa(lp591
F2739.6999999999998
aa(lp592
F3030
aa(lp593
F2090.5999999999999
aa(lp594
F487.30000000000001
aa(lp595
F181.09999999999999
aa(lp596
F155.80000000000001
aa(lp597
F159.59999999999999
aa(lp598
F81.400000000000006
aa(lp599
F3.2000000000000002
aa(lp600
F0
aa(lp601
F0
aa(lp602
F0
aa(lp603
F0
aa(lp604
F0
aa(lp605
F0
aa(lp606
F0
aa(lp607
F0
aa(lp608
F0
aa(lp609
F0
aa(lp610
F49.399999999999999
aa(lp611
F304.89999999999998
aa(lp612
F729
aa(lp613
F1503.9000000000001
aa(lp614
F1765
aa(lp615
F1786.9000000000001
aa(lp616
F1284.0999999999999
aa(lp617
F2876.9000000000001
aa(lp618
F3219.1999999999998
aa(lp619
F2814
aa(lp620
F1915.4000000000001
aa(lp621
F103
aa(lp622
F15.199999999999999
aa(lp623
F2.2999999999999998
aa(lp624
F0
aa(lp625
F0
aa(lp626
F0
aa(lp627
F0
aa(lp628
F0
aa(lp629
F0
aa(lp630
F0
aa(lp631
F0
aa(lp632
F0
aa(lp633
F0
aa(lp634
F54.700000000000003
aa(lp635
F417.60000000000002
aa(lp636
F735.39999999999998
aa(lp637
F1447.4000000000001
aa(lp638
F1060.5999999999999
aa(lp639
F1466.7
aa(lp640
F2599.9000000000001
aa(lp641
F2588.5
aa(lp642
F885.20000000000005
aa(lp643
F1068.8
aa(lp644
F333.10000000000002
aa(lp645
F235.69999999999999
aa(lp646
F43.700000000000003
aa(lp647
F3.5
aa(lp648
F0
aa(lp649
F0
aa(lp650
F0
aa(lp651
F0
aa(lp652
F0
aa(lp653
F0
aa(lp654
F0
aa(lp655
F0
aa(lp656
F0
aa(lp657
F0
aa(lp658
F48.100000000000001
aa(lp659
F365.69999999999999
aa(lp660
F1307.7
aa(lp661
F1565.9000000000001
aa(lp662
F2259
aa(lp663
F2898.4000000000001
aa(lp664
F2870
aa(lp665
F2789.9000000000001
aa(lp666
F1953.8
aa(lp667
F2566.1999999999998
aa(lp668
F983.79999999999995
aa(lp669
F888.70000000000005
aa(lp670
F663.5
aa(lp671
F11
aa(lp672
F0
aa(lp673
F0
aa(lp674
F0
aa(lp675
F0
aa(lp676
F0
aa(lp677
F0
aa(lp678
F0
aa(lp679
F0
aa(lp680
F0
aa(lp681
F0
aa(lp682
F41.899999999999999
aa(lp683
F753.10000000000002
aa(lp684
F672.39999999999998
aa(lp685
F484.19999999999999
aa(lp686
F1149.5999999999999
aa(lp687
F2238.5999999999999
aa(lp688
F3504.6999999999998
aa(lp689
F2867.0999999999999
aa(lp690
F2765.4000000000001
aa(lp691
F2451.3000000000002
aa(lp692
F1277.4000000000001
aa(lp693
F93.599999999999994
aa(lp694
F192.19999999999999
aa(lp695
F5.2000000000000002
aa(lp696
F0
aa(lp697
F0
aa(lp698
F0
aa(lp699
F0
aa(lp700
F0
aa(lp701
F0
aa(lp702
F0
aa(lp703
F0
aa(lp704
F0
aa(lp705
F0
aa(lp706
F37.200000000000003
aa(lp707
F321.5
aa(lp708
F784.20000000000005
aa(lp709
F1250
aa(lp710
F2258.3000000000002
aa(lp711
F2455.8000000000002
aa(lp712
F2897.9000000000001
aa(lp713
F3078.3000000000002
aa(lp714
F1754.9000000000001
aa(lp715
F1285.9000000000001
aa(lp716
F1486.7
aa(lp717
F1174.8
aa(lp718
F163.5
aa(lp719
F4.0999999999999996
aa(lp720
F0
aa(lp721
F0
aa(lp722
F0
aa(lp723
F0
aa(lp724
F0
aa(lp725
F0
aa(lp726
F0
aa(lp727
F0
aa(lp728
F0
aa(lp729
F0
aa(lp730
F45.899999999999999
aa(lp731
F222.19999999999999
aa(lp732
F718.29999999999995
aa(lp733
F1780.0999999999999
aa(lp734
F3162.5999999999999
aa(lp735
F3401.8000000000002
aa(lp736
F3585.3000000000002
aa(lp737
F3642
aa(lp738
F3194.6999999999998
aa(lp739
F2465.1999999999998
aa(lp740
F2053
aa(lp741
F619.10000000000002
aa(lp742
F428.30000000000001
aa(lp743
F2.7000000000000002
aa(lp744
F0
aa(lp745
F0
aa(lp746
F0
aa(lp747
F0
aa(lp748
F0
aa(lp749
F0
aa(lp750
F0
aa(lp751
F0
aa(lp752
F0
aa(lp753
F0
aa(lp754
F81.299999999999997
aa(lp755
F573.39999999999998
aa(lp756
F1304
aa(lp757
F1347.5999999999999
aa(lp758
F2025.5999999999999
aa(lp759
F2444.4000000000001
aa(lp760
F3172.5999999999999
aa(lp761
F3245.9000000000001
aa(lp762
F2702.8000000000002
aa(lp763
F2367.3000000000002
aa(lp764
F1005.6
aa(lp765
F501.10000000000002
aa(lp766
F44.700000000000003
aa(lp767
F4.9000000000000004
aa(lp768
F0
aa(lp769
F0
aa(lp770
F0
aa(lp771
F0
aa(lp772
F0
aa(lp773
F0
aa(lp774
F0
aa(lp775
F0
aa(lp776
F0
aa(lp777
F0
aa(lp778
F63.299999999999997
aa(lp779
F729.60000000000002
aa(lp780
F1321.9000000000001
aa(lp781
F2465.0999999999999
aa(lp782
F3074.0999999999999
aa(lp783
F2550
aa(lp784
F2473.0999999999999
aa(lp785
F3434.0999999999999
aa(lp786
F3395.1999999999998
aa(lp787
F2735.8000000000002
aa(lp788
F2260.0999999999999
aa(lp789
F1285.8
aa(lp790
F493.80000000000001
aa(lp791
F6
aa(lp792
F0
aa(lp793
F0
aa(lp794
F0
aa(lp795
F0
aa(lp796
F0
aa(lp797
F0
aa(lp798
F0
aa(lp799
F0
aa(lp800
F0
aa(lp801
F0
aa(lp802
F95.799999999999997
aa(lp803
F665.60000000000002
aa(lp804
F1412.3
aa(lp805
F2146.3000000000002
aa(lp806
F2856.0999999999999
aa(lp807
F3484.1999999999998
aa(lp808
F3443.8000000000002
aa(lp809
F2482.3000000000002
aa(lp810
F3211
aa(lp811
F3010.5
aa(lp812
F2003
aa(lp813
F1408.0999999999999
aa(lp814
F481.39999999999998
aa(lp815
F2.8999999999999999
aa(lp816
F0
aa(lp817
F0
aa(lp818
F0
aa(lp819
F0
aa(lp820
F0
aa(lp821
F0
aa(lp822
F0
aa(lp823
F0
aa(lp824
F0
aa(lp825
F0
aa(lp826
F70.900000000000006
aa(lp827
F659.89999999999998
aa(lp828
F1576.9000000000001
aa(lp829
F2329.6999999999998
aa(lp830
F2567.0999999999999
aa(lp831
F3292.5999999999999
aa(lp832
F3745.6999999999998
aa(lp833
F3813
aa(lp834
F3133.8000000000002
aa(lp835
F798.5
aa(lp836
F1724.2
aa(lp837
F1159.2
aa(lp838
F496.89999999999998
aa(lp839
F8
aa(lp840
F0
aa(lp841
F0
aa(lp842
F0
aa(lp843
F0
aa(lp844
F0
aa(lp845
F0
aa(lp846
F0
aa(lp847
F0
aa(lp848
F0
aa(lp849
F0
aa(lp850
F72.599999999999994
aa(lp851
F698.29999999999995
aa(lp852
F1550.2
aa(lp853
F2362.5
aa(lp854
F2740.9000000000001
aa(lp855
F2173.5999999999999
aa(lp856
F3454.0999999999999
aa(lp857
F3318.5999999999999
aa(lp858
F2694.5
aa(lp859
F2305.3000000000002
aa(lp860
F1700.2
aa(lp861
F1325.7
aa(lp862
F215.19999999999999
aa(lp863
F1.5
aa(lp864
F0
aa(lp865
F0
aa(lp866
F0
aa(lp867
F0
aa(lp868
F0
aa(lp869
F0
aa(lp870
F0
aa(lp871
F0
aa(lp872
F0
aa(lp873
F0
aa(lp874
F37.799999999999997
aa(lp875
F740.39999999999998
aa(lp876
F1184.3
aa(lp877
F2048.8000000000002
aa(lp878
F3050.9000000000001
aa(lp879
F3382.3000000000002
aa(lp880
F3328.8000000000002
aa(lp881
F3498.0999999999999
aa(lp882
F2927.9000000000001
aa(lp883
F1208.7
aa(lp884
F2257.9000000000001
aa(lp885
F1328.5
aa(lp886
F440.60000000000002
aa(lp887
F2.6000000000000001
aa(lp888
F0
aa(lp889
F0
aa(lp890
F0
aa(lp891
F0
aa(lp892
F0
aa(lp893
F0
aa(lp894
F0
aa(lp895
F0
aa(lp896
F0
aa(lp897
F0
aa(lp898
F57.799999999999997
aa(lp899
F645
aa(lp900
F1552.8
aa(lp901
F2341
aa(lp902
F3029.4000000000001
aa(lp903
F3348
aa(lp904
F3695.9000000000001
aa(lp905
F3350.8000000000002
aa(lp906
F3469.0999999999999
aa(lp907
F2894.1999999999998
aa(lp908
F2176.1999999999998
aa(lp909
F1364.0999999999999
aa(lp910
F473.89999999999998
aa(lp911
F3
aa(lp912
F0
aa(lp913
F0
aa(lp914
F0
aa(lp915
F0
aa(lp916
F0
aa(lp917
F0
aa(lp918
F0
aa(lp919
F0
aa(lp920
F0
aa(lp921
F0
aa(lp922
F61.700000000000003
aa(lp923
F651.39999999999998
aa(lp924
F1419.0999999999999
aa(lp925
F1821.4000000000001
aa(lp926
F3039.3000000000002
aa(lp927
F3487
aa(lp928
F3598.0999999999999
aa(lp929
F3357.6999999999998
aa(lp930
F3420.5
aa(lp931
F2132.3000000000002
aa(lp932
F532.89999999999998
aa(lp933
F989.5
aa(lp934
F123
aa(lp935
F1.5
aa(lp936
F0
aa(lp937
F0
aa(lp938
F0
aa(lp939
F0
aa(lp940
F0
aa(lp941
F0
aa(lp942
F0
aa(lp943
F0
aa(lp944
F0
aa(lp945
F0
aa(lp946
F43.5
aa(lp947
F460.60000000000002
aa(lp948
F1345.4000000000001
aa(lp949
F2078.3000000000002
aa(lp950
F2443.9000000000001
aa(lp951
F3288.6999999999998
aa(lp952
F3667.5
aa(lp953
F2603.0999999999999
aa(lp954
F2636.8000000000002
aa(lp955
F2694.5999999999999
aa(lp956
F1739.8
aa(lp957
F1446.4000000000001
aa(lp958
F557.70000000000005
aa(lp959
F2
aa(lp960
F0
aa(lp961
F0
aa(lp962
F0
aa(lp963
F0
aa(lp964
F0
aa(lp965
F0
aa(lp966
F0
aa(lp967
F0
aa(lp968
F0
aa(lp969
F0
aa(lp970
F32.399999999999999
aa(lp971
F625.89999999999998
aa(lp972
F1477.7
aa(lp973
F2282
aa(lp974
F2923.6999999999998
aa(lp975
F3405.0999999999999
aa(lp976
F3716
aa(lp977
F3305.0999999999999
aa(lp978
F2911.6999999999998
aa(lp979
F2086.0999999999999
aa(lp980
F1954.8
aa(lp981
F783
aa(lp982
F338.19999999999999
aa(lp983
F3.3999999999999999
aa(lp984
F0
aa(lp985
F0
aa(lp986
F0
aa(lp987
F0
aa(lp988
F0
aa(lp989
F0
aa(lp990
F0
aa(lp991
F0
aa(lp992
F0
aa(lp993
F0
aa(lp994
F26.300000000000001
aa(lp995
F368.19999999999999
aa(lp996
F1129.5
aa(lp997
F2428.5999999999999
aa(lp998
F1754.5999999999999
aa(lp999
F2931.9000000000001
aa(lp1000
F875.20000000000005
aa(lp1001
F1075.9000000000001
aa(lp1002
F1222.0999999999999
aa(lp1003
F2334.8000000000002
aa(lp1004
F964.70000000000005
aa(lp1005
F305.30000000000001
aa(lp1006
F174.59999999999999
aa(lp1007
F3.2999999999999998
aa(lp1008
F0
aa(lp1009
F0
aa(lp1010
F0
aa(lp1011
F0
aa(lp1012
F0
aa(lp1013
F0
aa(lp1014
F0
aa(lp1015
F0
aa(lp1016
F0
aa(lp1017
F0
aa(lp1018
F35.299999999999997
aa(lp1019
F602.70000000000005
aa(lp1020
F1263.2
aa(lp1021
F2099.3000000000002
aa(lp1022
F2661.0999999999999
aa(lp1023
F3174.6999999999998
aa(lp1024
F3349.0999999999999
aa(lp1025
F3132.3000000000002
aa(lp1026
F2216
aa(lp1027
F2732.6999999999998
aa(lp1028
F954
aa(lp1029
F428.30000000000001
aa(lp1030
F561.89999999999998
aa(lp1031
F2.5
aa(lp1032
F0
aa(lp1033
F0
aa(lp1034
F0
aa(lp1035
F0
aa(lp1036
F0
aa(lp1037
F0
aa(lp1038
F0
aa(lp1039
F0
aa(lp1040
F0
aa(lp1041
F0
aa(lp1042
F29.100000000000001
aa(lp1043
F624.5
aa(lp1044
F1008.3
aa(lp1045
F2295.5999999999999
aa(lp1046
F2813.4000000000001
aa(lp1047
F3270.8000000000002
aa(lp1048
F3547.8000000000002
aa(lp1049
F2428.6999999999998
aa(lp1050
F3382.4000000000001
aa(lp1051
F1058.0999999999999
aa(lp1052
F558.60000000000002
aa(lp1053
F776.60000000000002
aa(lp1054
F74.099999999999994
aa(lp1055
F3.8999999999999999
aa(lp1056
F0
aa(lp1057
F0
aa(lp1058
F0
aa(lp1059
F0
aa(lp1060
F0
aa(lp1061
F0
aa(lp1062
F0
aa(lp1063
F0
aa(lp1064
F0
aa(lp1065
F0
aa(lp1066
F44.299999999999997
aa(lp1067
F542.5
aa(lp1068
F1384.0999999999999
aa(lp1069
F2223.5999999999999
aa(lp1070
F2493.6999999999998
aa(lp1071
F1876.5999999999999
aa(lp1072
F3159.1999999999998
aa(lp1073
F2700.4000000000001
aa(lp1074
F2983.4000000000001
aa(lp1075
F1075
aa(lp1076
F796.29999999999995
aa(lp1077
F950.20000000000005
aa(lp1078
F217
aa(lp1079
F2.7999999999999998
aa(lp1080
F0
aa(lp1081
F0
aa(lp1082
F0
aa(lp1083
F0
aa(lp1084
F0
aa(lp1085
F0
aa(lp1086
F0
aa(lp1087
F0
aa(lp1088
F0
aa(lp1089
F0
aa(lp1090
F51.799999999999997
aa(lp1091
F636.5
aa(lp1092
F1295.5999999999999
aa(lp1093
F1915.8
aa(lp1094
F2319.0999999999999
aa(lp1095
F2615.4000000000001
aa(lp1096
F3176.8000000000002
aa(lp1097
F3049.8000000000002
aa(lp1098
F3023.5999999999999
aa(lp1099
F2321.4000000000001
aa(lp1100
F1759.9000000000001
aa(lp1101
F398.19999999999999
aa(lp1102
F85.200000000000003
aa(lp1103
F3.7999999999999998
aa(lp1104
F0
aa(lp1105
F0
aa(lp1106
F0
aa(lp1107
F0
aa(lp1108
F0
aa(lp1109
F0
aa(lp1110
F0
aa(lp1111
F0
aa(lp1112
F0
aa(lp1113
F0
aa(lp1114
F52.600000000000001
aa(lp1115
F443.80000000000001
aa(lp1116
F1499.4000000000001
aa(lp1117
F2207.5
aa(lp1118
F2479.8000000000002
aa(lp1119
F2577.3000000000002
aa(lp1120
F1781.7
aa(lp1121
F1357.0999999999999
aa(lp1122
F444.80000000000001
aa(lp1123
F970.89999999999998
aa(lp1124
F2213.4000000000001
aa(lp1125
F1266.7
aa(lp1126
F423.69999999999999
aa(lp1127
F5.4000000000000004
aa(lp1128
F0
aa(lp1129
F0
aa(lp1130
F0
aa(lp1131
F0
aa(lp1132
F0
aa(lp1133
F0
aa(lp1134
F0
aa(lp1135
F0
aa(lp1136
F0
aa(lp1137
F0
aa(lp1138
F28.800000000000001
aa(lp1139
F465.69999999999999
aa(lp1140
F795
aa(lp1141
F2281.8000000000002
aa(lp1142
F2898
aa(lp1143
F3401.6999999999998
aa(lp1144
F3691.6999999999998
aa(lp1145
F3300.4000000000001
aa(lp1146
F248.80000000000001
aa(lp1147
F58
aa(lp1148
F413.60000000000002
aa(lp1149
F510.30000000000001
aa(lp1150
F206.30000000000001
aa(lp1151
F15
aa(lp1152
F0
aa(lp1153
F0
aa(lp1154
F0
aa(lp1155
F0
aa(lp1156
F0
aa(lp1157
F0
aa(lp1158
F0
aa(lp1159
F0
aa(lp1160
F0
aa(lp1161
F0
aa(lp1162
F51.700000000000003
aa(lp1163
F481.80000000000001
aa(lp1164
F1469.4000000000001
aa(lp1165
F2309.6999999999998
aa(lp1166
F2939.8000000000002
aa(lp1167
F2884.9000000000001
aa(lp1168
F3263.3000000000002
aa(lp1169
F1949.0999999999999
aa(lp1170
F3014
aa(lp1171
F926.20000000000005
aa(lp1172
F357.89999999999998
aa(lp1173
F350.80000000000001
aa(lp1174
F17.899999999999999
aa(lp1175
F4.5999999999999996
aa(lp1176
F0
aa(lp1177
F0
aa(lp1178
F0
aa(lp1179
F0
aa(lp1180
F0
aa(lp1181
F0
aa(lp1182
F0
aa(lp1183
F0
aa(lp1184
F0
aa(lp1185
F0
aa(lp1186
F1.1000000000000001
aa(lp1187
F143.90000000000001
aa(lp1188
F430.60000000000002
aa(lp1189
F1473.0999999999999
aa(lp1190
F2099.0999999999999
aa(lp1191
F2590.0999999999999
aa(lp1192
F3180.5999999999999
aa(lp1193
F2864.4000000000001
aa(lp1194
F3066.5999999999999
aa(lp1195
F1871.9000000000001
aa(lp1196
F523
aa(lp1197
F211.80000000000001
aa(lp1198
F336.60000000000002
aa(lp1199
F4.4000000000000004
aa(lp1200
F0
aa(lp1201
F0
aa(lp1202
F0
aa(lp1203
F0
aa(lp1204
F0
aa(lp1205
F0
aa(lp1206
F0
aa(lp1207
F0
aa(lp1208
F0
aa(lp1209
F0
aa(lp1210
F14.1
aa(lp1211
F267.89999999999998
aa(lp1212
F769.60000000000002
aa(lp1213
F1163.8
aa(lp1214
F1307.8
aa(lp1215
F2671.5
aa(lp1216
F3265.3000000000002
aa(lp1217
F3103.6999999999998
aa(lp1218
F3172.0999999999999
aa(lp1219
F2128
aa(lp1220
F1771.5999999999999
aa(lp1221
F602.89999999999998
aa(lp1222
F165.5
aa(lp1223
F2.8999999999999999
aa(lp1224
F0
aa(lp1225
F0
aa(lp1226
F0
aa(lp1227
F0
aa(lp1228
F0
aa(lp1229
F0
aa(lp1230
F0
aa(lp1231
F0
aa(lp1232
F0
aa(lp1233
F0
aa(lp1234
F21.800000000000001
aa(lp1235
F510.80000000000001
aa(lp1236
F1145.8
aa(lp1237
F1837.7
aa(lp1238
F2960.6999999999998
aa(lp1239
F2732.3000000000002
aa(lp1240
F3345.5999999999999
aa(lp1241
F2269.4000000000001
aa(lp1242
F2140
aa(lp1243
F1284.5
aa(lp1244
F1819.7
aa(lp1245
F1106.3
aa(lp1246
F266.10000000000002
aa(lp1247
F2.2000000000000002
aa(lp1248
F0
aa(lp1249
F0
aa(lp1250
F0
aa(lp1251
F0
aa(lp1252
F0
aa(lp1253
F0
aa(lp1254
F0
aa(lp1255
F0
aa(lp1256
F0
aa(lp1257
F0
aa(lp1258
F21.800000000000001
aa(lp1259
F260.69999999999999
aa(lp1260
F480.89999999999998
aa(lp1261
F1780.4000000000001
aa(lp1262
F2640.8000000000002
aa(lp1263
F2592.5999999999999
aa(lp1264
F1663.4000000000001
aa(lp1265
F795.29999999999995
aa(lp1266
F980.39999999999998
aa(lp1267
F589.79999999999995
aa(lp1268
F285.10000000000002
aa(lp1269
F239.59999999999999
aa(lp1270
F124.40000000000001
aa(lp1271
F6
aa(lp1272
F0
aa(lp1273
F0
aa(lp1274
F0
aa(lp1275
F0
aa(lp1276
F0
aa(lp1277
F0
aa(lp1278
F0
aa(lp1279
F0
aa(lp1280
F0
aa(lp1281
F0
aa(lp1282
F9.4000000000000004
aa(lp1283
F231.5
aa(lp1284
F911.39999999999998
aa(lp1285
F1273.4000000000001
aa(lp1286
F704.60000000000002
aa(lp1287
F3426.3000000000002
aa(lp1288
F3116.5
aa(lp1289
F1103.8
aa(lp1290
F144.09999999999999
aa(lp1291
F384.69999999999999
aa(lp1292
F508.39999999999998
aa(lp1293
F388.60000000000002
aa(lp1294
F133.40000000000001
aa(lp1295
F1.6000000000000001
aa(lp1296
F0
aa(lp1297
F0
aa(lp1298
F0
aa(lp1299
F0
aa(lp1300
F0
aa(lp1301
F0
aa(lp1302
F0
aa(lp1303
F0
aa(lp1304
F0
aa(lp1305
F0
aa(lp1306
F41.200000000000003
aa(lp1307
F338.80000000000001
aa(lp1308
F754.39999999999998
aa(lp1309
F1566.4000000000001
aa(lp1310
F2211.9000000000001
aa(lp1311
F3391.1999999999998
aa(lp1312
F2966.6999999999998
aa(lp1313
F3183.0999999999999
aa(lp1314
F3138.0999999999999
aa(lp1315
F2729.9000000000001
aa(lp1316
F2193.8000000000002
aa(lp1317
F1738
aa(lp1318
F595.20000000000005
aa(lp1319
F2.8999999999999999
aa(lp1320
F0
aa(lp1321
F0
aa(lp1322
F0
aa(lp1323
F0
aa(lp1324
F0
aa(lp1325
F0
aa(lp1326
F0
aa(lp1327
F0
aa(lp1328
F0
aa(lp1329
F0
aa(lp1330
F7.9000000000000004
aa(lp1331
F111.90000000000001
aa(lp1332
F387.5
aa(lp1333
F813.89999999999998
aa(lp1334
F1016.3
aa(lp1335
F2092.3000000000002
aa(lp1336
F3654.4000000000001
aa(lp1337
F3529.8000000000002
aa(lp1338
F3253.9000000000001
aa(lp1339
F3004.5999999999999
aa(lp1340
F2377.1999999999998
aa(lp1341
F1591.4000000000001
aa(lp1342
F262.69999999999999
aa(lp1343
F2.6000000000000001
aa(lp1344
F0
aa(lp1345
F0
aa(lp1346
F0
aa(lp1347
F0
aa(lp1348
F0
aa(lp1349
F0
aa(lp1350
F0
aa(lp1351
F0
aa(lp1352
F0
aa(lp1353
F0
aa(lp1354
F12.199999999999999
aa(lp1355
F195.30000000000001
aa(lp1356
F641.79999999999995
aa(lp1357
F1270.5999999999999
aa(lp1358
F1982.8
aa(lp1359
F3103.4000000000001
aa(lp1360
F2356.9000000000001
aa(lp1361
F2744.3000000000002
aa(lp1362
F3193.6999999999998
aa(lp1363
F2991.9000000000001
aa(lp1364
F2047.0999999999999
aa(lp1365
F995.5
aa(lp1366
F133.69999999999999
aa(lp1367
F2
aa(lp1368
F0
aa(lp1369
F0
aa(lp1370
F0
aa(lp1371
F0
aa(lp1372
F0
aa(lp1373
F0
aa(lp1374
F0
aa(lp1375
F0
aa(lp1376
F0
aa(lp1377
F0
aa(lp1378
F25.199999999999999
aa(lp1379
F553.5
aa(lp1380
F1392.3
aa(lp1381
F2220.1999999999998
aa(lp1382
F2892.8000000000002
aa(lp1383
F3160.0999999999999
aa(lp1384
F3306.9000000000001
aa(lp1385
F1261.3
aa(lp1386
F960.5
aa(lp1387
F696.60000000000002
aa(lp1388
F631.29999999999995
aa(lp1389
F434.60000000000002
aa(lp1390
F133.5
aa(lp1391
F6.7999999999999998
aa(lp1392
F0
aa(lp1393
F0
aa(lp1394
F0
aa(lp1395
F0
aa(lp1396
F0
aa(lp1397
F0
aa(lp1398
F0
aa(lp1399
F0
aa(lp1400
F0
aa(lp1401
F0
aa(lp1402
F18
aa(lp1403
F551.39999999999998
aa(lp1404
F1432.0999999999999
aa(lp1405
F1677.4000000000001
aa(lp1406
F2828.8000000000002
aa(lp1407
F2490.5
aa(lp1408
F3515.5
aa(lp1409
F1799.5999999999999
aa(lp1410
F2161.1999999999998
aa(lp1411
F2092.0999999999999
aa(lp1412
F675.29999999999995
aa(lp1413
F1334.9000000000001
aa(lp1414
F314.89999999999998
aa(lp1415
F2.7000000000000002
aa(lp1416
F0
aa(lp1417
F0
aa(lp1418
F0
aa(lp1419
F0
aa(lp1420
F0
aa(lp1421
F0
aa(lp1422
F0
aa(lp1423
F0
aa(lp1424
F0
aa(lp1425
F0
aa(lp1426
F13.699999999999999
aa(lp1427
F509.60000000000002
aa(lp1428
F1401.3
aa(lp1429
F2221.8000000000002
aa(lp1430
F2535.8000000000002
aa(lp1431
F1966.5999999999999
aa(lp1432
F2035.4000000000001
aa(lp1433
F2344.9000000000001
aa(lp1434
F2084.5999999999999
aa(lp1435
F2563.9000000000001
aa(lp1436
F1809.0999999999999
aa(lp1437
F1127.5
aa(lp1438
F326.69999999999999
aa(lp1439
F2.1000000000000001
aa(lp1440
F0
aa(lp1441
F0
aa(lp1442
F0
aa(lp1443
F0
aa(lp1444
F0
aa(lp1445
F0
aa(lp1446
F0
aa(lp1447
F0
aa(lp1448
F0
aa(lp1449
F0
aa(lp1450
F24.199999999999999
aa(lp1451
F538.39999999999998
aa(lp1452
F1386.7
aa(lp1453
F2202.6999999999998
aa(lp1454
F2813.0999999999999
aa(lp1455
F3023.4000000000001
aa(lp1456
F3694.4000000000001
aa(lp1457
F3618.5
aa(lp1458
F2992.8000000000002
aa(lp1459
F1764
aa(lp1460
F2024.9000000000001
aa(lp1461
F1180.0999999999999
aa(lp1462
F256.5
aa(lp1463
F2.6000000000000001
aa(lp1464
F0
aa(lp1465
F0
aa(lp1466
F0
aa(lp1467
F0
aa(lp1468
F0
aa(lp1469
F0
aa(lp1470
F0
aa(lp1471
F0
aa(lp1472
F0
aa(lp1473
F0
aa(lp1474
F5.0999999999999996
aa(lp1475
F209.59999999999999
aa(lp1476
F882.89999999999998
aa(lp1477
F2041.9000000000001
aa(lp1478
F2864.1999999999998
aa(lp1479
F2928.6999999999998
aa(lp1480
F3097.6999999999998
aa(lp1481
F2395.4000000000001
aa(lp1482
F2435.4000000000001
aa(lp1483
F2051
aa(lp1484
F1663.5999999999999
aa(lp1485
F1315.8
aa(lp1486
F259.39999999999998
aa(lp1487
F5.4000000000000004
aa(lp1488
F0
aa(lp1489
F0
aa(lp1490
F0
aa(lp1491
F0
aa(lp1492
F0
aa(lp1493
F0
aa(lp1494
F0
aa(lp1495
F0
aa(lp1496
F0
aa(lp1497
F0
aa(lp1498
F33.799999999999997
aa(lp1499
F568.10000000000002
aa(lp1500
F1355.5999999999999
aa(lp1501
F2154.1999999999998
aa(lp1502
F2808.3000000000002
aa(lp1503
F3034.8000000000002
aa(lp1504
F3011.9000000000001
aa(lp1505
F2166.1999999999998
aa(lp1506
F226.59999999999999
aa(lp1507
F136.69999999999999
aa(lp1508
F232.19999999999999
aa(lp1509
F204.80000000000001
aa(lp1510
F94.099999999999994
aa(lp1511
F3.2999999999999998
aa(lp1512
F0
aa(lp1513
F0
aa(lp1514
F0
aa(lp1515
F0
aa(lp1516
F0
aa(lp1517
F0
aa(lp1518
F0
aa(lp1519
F0
aa(lp1520
F0
aa(lp1521
F0
aa(lp1522
F2.7999999999999998
aa(lp1523
F57.600000000000001
aa(lp1524
F220.69999999999999
aa(lp1525
F535.89999999999998
aa(lp1526
F1444
aa(lp1527
F1421.0999999999999
aa(lp1528
F1625.4000000000001
aa(lp1529
F2974.9000000000001
aa(lp1530
F3207.8000000000002
aa(lp1531
F1629.3
aa(lp1532
F462.39999999999998
aa(lp1533
F153.30000000000001
aa(lp1534
F91.5
aa(lp1535
F6
aa(lp1536
F0
aa(lp1537
F0
aa(lp1538
F0
aa(lp1539
F0
aa(lp1540
F0
aa(lp1541
F0
aa(lp1542
F0
aa(lp1543
F0
aa(lp1544
F0
aa(lp1545
F0
aa(lp1546
F22.100000000000001
aa(lp1547
F589.39999999999998
aa(lp1548
F1001.6
aa(lp1549
F861.39999999999998
aa(lp1550
F2930
aa(lp1551
F3370.0999999999999
aa(lp1552
F3676.8000000000002
aa(lp1553
F1946.8
aa(lp1554
F317.30000000000001
aa(lp1555
F138.90000000000001
aa(lp1556
F372.80000000000001
aa(lp1557
F351.5
aa(lp1558
F373.60000000000002
aa(lp1559
F4.9000000000000004
aa(lp1560
F0
aa(lp1561
F0
aa(lp1562
F0
aa(lp1563
F0
aa(lp1564
F0
aa(lp1565
F0
aa(lp1566
F0
aa(lp1567
F0
aa(lp1568
F0
aa(lp1569
F0
aa(lp1570
F15
aa(lp1571
F483.80000000000001
aa(lp1572
F1316.9000000000001
aa(lp1573
F1414.9000000000001
aa(lp1574
F2838.3000000000002
aa(lp1575
F3286.0999999999999
aa(lp1576
F3447.9000000000001
aa(lp1577
F3250.0999999999999
aa(lp1578
F2295.9000000000001
aa(lp1579
F2480.8000000000002
aa(lp1580
F1288.3
aa(lp1581
F1071
aa(lp1582
F222.5
aa(lp1583
F6.0999999999999996
aa(lp1584
F0
aa(lp1585
F0
aa(lp1586
F0
aa(lp1587
F0
aa(lp1588
F0
aa(lp1589
F0
aa(lp1590
F0
aa(lp1591
F0
aa(lp1592
F0
aa(lp1593
F0
aa(lp1594
F12.800000000000001
aa(lp1595
F483
aa(lp1596
F1337.9000000000001
aa(lp1597
F2153.5999999999999
aa(lp1598
F2823.5999999999999
aa(lp1599
F3282.3000000000002
aa(lp1600
F3306.5999999999999
aa(lp1601
F3345.0999999999999
aa(lp1602
F2490.5
aa(lp1603
F1550.9000000000001
aa(lp1604
F1537.0999999999999
aa(lp1605
F989.20000000000005
aa(lp1606
F240
aa(lp1607
F2.1000000000000001
aa(lp1608
F0
aa(lp1609
F0
aa(lp1610
F0
aa(lp1611
F0
aa(lp1612
F0
aa(lp1613
F0
aa(lp1614
F0
aa(lp1615
F0
aa(lp1616
F0
aa(lp1617
F0
aa(lp1618
F13.5
aa(lp1619
F469.39999999999998
aa(lp1620
F1310.4000000000001
aa(lp1621
F2128.6999999999998
aa(lp1622
F2807
aa(lp1623
F3260.1999999999998
aa(lp1624
F3485.9000000000001
aa(lp1625
F3424.1999999999998
aa(lp1626
F1672.5999999999999
aa(lp1627
F2556.6999999999998
aa(lp1628
F1961.5
aa(lp1629
F1047.9000000000001
aa(lp1630
F233.90000000000001
aa(lp1631
F4.7000000000000002
aa(lp1632
F0
aa(lp1633
F0
aa(lp1634
F0
aa(lp1635
F0
aa(lp1636
F0
aa(lp1637
F0
aa(lp1638
F0
aa(lp1639
F0
aa(lp1640
F0
aa(lp1641
F0
aa(lp1642
F14
aa(lp1643
F507.60000000000002
aa(lp1644
F1358.4000000000001
aa(lp1645
F2148.3000000000002
aa(lp1646
F2769
aa(lp1647
F3294.3000000000002
aa(lp1648
F3618.5999999999999
aa(lp1649
F3002.5
aa(lp1650
F2474.3000000000002
aa(lp1651
F2234
aa(lp1652
F507.80000000000001
aa(lp1653
F1024.8
aa(lp1654
F273.39999999999998
aa(lp1655
F5
aa(lp1656
F0
aa(lp1657
F0
aa(lp1658
F0
aa(lp1659
F0
aa(lp1660
F0
aa(lp1661
F0
aa(lp1662
F0
aa(lp1663
F0
aa(lp1664
F0
aa(lp1665
F0
aa(lp1666
F11.800000000000001
aa(lp1667
F491.19999999999999
aa(lp1668
F1336.8
aa(lp1669
F2145
aa(lp1670
F2809.4000000000001
aa(lp1671
F3268.4000000000001
aa(lp1672
F3474.0999999999999
aa(lp1673
F3412.9000000000001
aa(lp1674
F3082.1999999999998
aa(lp1675
F2574.1999999999998
aa(lp1676
F1739.5999999999999
aa(lp1677
F902.70000000000005
aa(lp1678
F237.90000000000001
aa(lp1679
F3.1000000000000001
aa(lp1680
F0
aa(lp1681
F0
aa(lp1682
F0
aa(lp1683
F0
aa(lp1684
F0
aa(lp1685
F0
aa(lp1686
F0
aa(lp1687
F0
aa(lp1688
F0
aa(lp1689
F0
aa(lp1690
F11.199999999999999
aa(lp1691
F471.60000000000002
aa(lp1692
F1307.3
aa(lp1693
F2134.0999999999999
aa(lp1694
F2782.8000000000002
aa(lp1695
F3253.8000000000002
aa(lp1696
F2889
aa(lp1697
F3178
aa(lp1698
F3041.5999999999999
aa(lp1699
F2411
aa(lp1700
F1811.9000000000001
aa(lp1701
F977.29999999999995
aa(lp1702
F230.90000000000001
aa(lp1703
F1
aa(lp1704
F0
aa(lp1705
F0
aa(lp1706
F0
aa(lp1707
F0
aa(lp1708
F0
aa(lp1709
F0
aa(lp1710
F0
aa(lp1711
F0
aa(lp1712
F0
aa(lp1713
F0
aa(lp1714
F9.4000000000000004
aa(lp1715
F479.39999999999998
aa(lp1716
F1325.7
aa(lp1717
F2145.8000000000002
aa(lp1718
F2800.5999999999999
aa(lp1719
F3263.6999999999998
aa(lp1720
F3469.8000000000002
aa(lp1721
F3057.8000000000002
aa(lp1722
F3049.0999999999999
aa(lp1723
F2621.9000000000001
aa(lp1724
F1527.7
aa(lp1725
F1015.5
aa(lp1726
F231.59999999999999
aa(lp1727
F4.2999999999999998
aa(lp1728
F0
aa(lp1729
F0
aa(lp1730
F0
aa(lp1731
F0
aa(lp1732
F0
aa(lp1733
F0
aa(lp1734
F0
aa(lp1735
F0
aa(lp1736
F0
aa(lp1737
F0
aa(lp1738
F9.9000000000000004
aa(lp1739
F445.10000000000002
aa(lp1740
F1325.0999999999999
aa(lp1741
F2138.8000000000002
aa(lp1742
F2787.3000000000002
aa(lp1743
F3246.3000000000002
aa(lp1744
F3519.6999999999998
aa(lp1745
F3529.4000000000001
aa(lp1746
F3169.5999999999999
aa(lp1747
F2157.5999999999999
aa(lp1748
F340.39999999999998
aa(lp1749
F870
aa(lp1750
F223.30000000000001
aa(lp1751
F2.6000000000000001
aa(lp1752
F0
aa(lp1753
F0
aa(lp1754
F0
aa(lp1755
F0
aa(lp1756
F0
aa(lp1757
F0
aa(lp1758
F0
aa(lp1759
F0
aa(lp1760
F0
aa(lp1761
F0
aa(lp1762
F15.1
aa(lp1763
F566.39999999999998
aa(lp1764
F1261.0999999999999
aa(lp1765
F1790.0999999999999
aa(lp1766
F2091.5999999999999
aa(lp1767
F2302.9000000000001
aa(lp1768
F1024.5999999999999
aa(lp1769
F528.79999999999995
aa(lp1770
F1685.8
aa(lp1771
F2589.6999999999998
aa(lp1772
F1505
aa(lp1773
F998.10000000000002
aa(lp1774
F113.90000000000001
aa(lp1775
F3.8999999999999999
aa(lp1776
F0
aa(lp1777
F0
aa(lp1778
F0
aa(lp1779
F0
aa(lp1780
F0
aa(lp1781
F0
aa(lp1782
F0
aa(lp1783
F0
aa(lp1784
F0
aa(lp1785
F0
aa(lp1786
F0.90000000000000002
aa(lp1787
F139
aa(lp1788
F344.30000000000001
aa(lp1789
F821.5
aa(lp1790
F1520.2
aa(lp1791
F2020.3
aa(lp1792
F1938.0999999999999
aa(lp1793
F1492.2
aa(lp1794
F1976.8
aa(lp1795
F1633.9000000000001
aa(lp1796
F1492.5
aa(lp1797
F446.80000000000001
aa(lp1798
F101.2
aa(lp1799
F2.7000000000000002
aa(lp1800
F0
aa(lp1801
F0
aa(lp1802
F0
aa(lp1803
F0
aa(lp1804
F0
aa(lp1805
F0
aa(lp1806
F0
aa(lp1807
F0
aa(lp1808
F0
aa(lp1809
F0
aa(lp1810
F9.0999999999999996
aa(lp1811
F482.39999999999998
aa(lp1812
F1196.5999999999999
aa(lp1813
F2041.2
aa(lp1814
F2766.3000000000002
aa(lp1815
F2345.0999999999999
aa(lp1816
F2652
aa(lp1817
F2633.8000000000002
aa(lp1818
F1410.5
aa(lp1819
F1821.0999999999999
aa(lp1820
F1380.0999999999999
aa(lp1821
F569.20000000000005
aa(lp1822
F140.90000000000001
aa(lp1823
F1.6000000000000001
aa(lp1824
F0
aa(lp1825
F0
aa(lp1826
F0
aa(lp1827
F0
aa(lp1828
F0
aa(lp1829
F0
aa(lp1830
F0
aa(lp1831
F0
aa(lp1832
F0
aa(lp1833
F0
aa(lp1834
F11
aa(lp1835
F391.89999999999998
aa(lp1836
F1232.5
aa(lp1837
F1771.7
aa(lp1838
F2952.4000000000001
aa(lp1839
F3123.0999999999999
aa(lp1840
F2698.1999999999998
aa(lp1841
F1607
aa(lp1842
F315.80000000000001
aa(lp1843
F843.10000000000002
aa(lp1844
F408.5
aa(lp1845
F74.700000000000003
aa(lp1846
F36
aa(lp1847
F2.2999999999999998
aa(lp1848
F0
aa(lp1849
F0
aa(lp1850
F0
aa(lp1851
F0
aa(lp1852
F0
aa(lp1853
F0
aa(lp1854
F0
aa(lp1855
F0
aa(lp1856
F0
aa(lp1857
F0
aa(lp1858
F8
aa(lp1859
F472.80000000000001
aa(lp1860
F1325.4000000000001
aa(lp1861
F2151.1999999999998
aa(lp1862
F2906.1999999999998
aa(lp1863
F3221.5999999999999
aa(lp1864
F2145.5999999999999
aa(lp1865
F1695.8
aa(lp1866
F1363.2
aa(lp1867
F1704
aa(lp1868
F1632.4000000000001
aa(lp1869
F465.69999999999999
aa(lp1870
F47.700000000000003
aa(lp1871
F4.4000000000000004
aa(lp1872
F0
aa(lp1873
F0
aa(lp1874
F0
aa(lp1875
F0
aa(lp1876
F0
aa(lp1877
F0
aa(lp1878
F0
aa(lp1879
F0
aa(lp1880
F0
aa(lp1881
F0
aa(lp1882
F8.0999999999999996
aa(lp1883
F482.39999999999998
aa(lp1884
F1327.0999999999999
aa(lp1885
F1910.5999999999999
aa(lp1886
F2701.9000000000001
aa(lp1887
F3163.6999999999998
aa(lp1888
F2580.4000000000001
aa(lp1889
F1648.9000000000001
aa(lp1890
F2020.4000000000001
aa(lp1891
F599.79999999999995
aa(lp1892
F296
aa(lp1893
F299.5
aa(lp1894
F46.899999999999999
aa(lp1895
F5.4000000000000004
aa(lp1896
F0
aa(lp1897
F0
aa(lp1898
F0
aa(lp1899
F0
aa(lp1900
F0
aa(lp1901
F0
aa(lp1902
F0
aa(lp1903
F0
aa(lp1904
F0
aa(lp1905
F0
aa(lp1906
F7.4000000000000004
aa(lp1907
F462.89999999999998
aa(lp1908
F1108.7
aa(lp1909
F1486.5999999999999
aa(lp1910
F2596.0999999999999
aa(lp1911
F2972.0999999999999
aa(lp1912
F3069.5999999999999
aa(lp1913
F2573.4000000000001
aa(lp1914
F1166.2
aa(lp1915
F880.79999999999995
aa(lp1916
F1433.7
aa(lp1917
F849.70000000000005
aa(lp1918
F29.699999999999999
aa(lp1919
F2.6000000000000001
aa(lp1920
F0
aa(lp1921
F0
aa(lp1922
F0
aa(lp1923
F0
aa(lp1924
F0
aa(lp1925
F0
aa(lp1926
F0
aa(lp1927
F0
aa(lp1928
F0
aa(lp1929
F0
aa(lp1930
F12
aa(lp1931
F452.80000000000001
aa(lp1932
F1287.9000000000001
aa(lp1933
F2072.0999999999999
aa(lp1934
F2717
aa(lp1935
F3173.6999999999998
aa(lp1936
F3323.9000000000001
aa(lp1937
F3364.6999999999998
aa(lp1938
F2809.6999999999998
aa(lp1939
F2362.3000000000002
aa(lp1940
F1589.5
aa(lp1941
F816.20000000000005
aa(lp1942
F126.5
aa(lp1943
F3.7999999999999998
aa(lp1944
F0
aa(lp1945
F0
aa(lp1946
F0
aa(lp1947
F0
aa(lp1948
F0
aa(lp1949
F0
aa(lp1950
F0
aa(lp1951
F0
aa(lp1952
F0
aa(lp1953
F0
aa(lp1954
F9
aa(lp1955
F471.10000000000002
aa(lp1956
F1317.4000000000001
aa(lp1957
F2089.5999999999999
aa(lp1958
F2653.6999999999998
aa(lp1959
F2848.0999999999999
aa(lp1960
F2947.8000000000002
aa(lp1961
F1196.3
aa(lp1962
F1160.9000000000001
aa(lp1963
F203
aa(lp1964
F464.10000000000002
aa(lp1965
F212.30000000000001
aa(lp1966
F45.399999999999999
aa(lp1967
F2.7000000000000002
aa(lp1968
F0
aa(lp1969
F0
aa(lp1970
F0
aa(lp1971
F0
aa(lp1972
F0
aa(lp1973
F0
aa(lp1974
F0
aa(lp1975
F0
aa(lp1976
F0
aa(lp1977
F0
aa(lp1978
F4.5999999999999996
aa(lp1979
F217.90000000000001
aa(lp1980
F625.29999999999995
aa(lp1981
F904.39999999999998
aa(lp1982
F1000.5
aa(lp1983
F1375.9000000000001
aa(lp1984
F1914.0999999999999
aa(lp1985
F2096.8000000000002
aa(lp1986
F957.29999999999995
aa(lp1987
F959.29999999999995
aa(lp1988
F749.20000000000005
aa(lp1989
F426.80000000000001
aa(lp1990
F59.899999999999999
aa(lp1991
F8.5999999999999996
aa(lp1992
F0
aa(lp1993
F0
aa(lp1994
F0
aa(lp1995
F0
aa(lp1996
F0
aa(lp1997
F0
aa(lp1998
F0
aa(lp1999
F0
aa(lp2000
F0
aa(lp2001
F0
aa(lp2002
F10.9
aa(lp2003
F400.10000000000002
aa(lp2004
F1267.2
aa(lp2005
F2064.8000000000002
aa(lp2006
F2703.0999999999999
aa(lp2007
F2790.1999999999998
aa(lp2008
F2928.6999999999998
aa(lp2009
F2339.9000000000001
aa(lp2010
F1733.4000000000001
aa(lp2011
F1987.5999999999999
aa(lp2012
F1121.8
aa(lp2013
F680.29999999999995
aa(lp2014
F114.40000000000001
aa(lp2015
F1.3
aa(lp2016
F0
aa(lp2017
F0
aa(lp2018
F0
aa(lp2019
F0
aa(lp2020
F0
aa(lp2021
F0
aa(lp2022
F0
aa(lp2023
F0
aa(lp2024
F0
aa(lp2025
F0
aa(lp2026
F14.9
aa(lp2027
F298.10000000000002
aa(lp2028
F1285.3
aa(lp2029
F1980.0999999999999
aa(lp2030
F2632.0999999999999
aa(lp2031
F3212.6999999999998
aa(lp2032
F3125.8000000000002
aa(lp2033
F3051.1999999999998
aa(lp2034
F2174.8000000000002
aa(lp2035
F2345.6999999999998
aa(lp2036
F1318.8
aa(lp2037
F823.39999999999998
aa(lp2038
F122.5
aa(lp2039
F1.7
aa(lp2040
F0
aa(lp2041
F0
aa(lp2042
F0
aa(lp2043
F0
aa(lp2044
F0
aa(lp2045
F0
aa(lp2046
F0
aa(lp2047
F0
aa(lp2048
F0
aa(lp2049
F0
aa(lp2050
F7
aa(lp2051
F460.10000000000002
aa(lp2052
F1202.5
aa(lp2053
F1980.7
aa(lp2054
F2583
aa(lp2055
F2989.1999999999998
aa(lp2056
F3011.9000000000001
aa(lp2057
F3084.1999999999998
aa(lp2058
F1323.7
aa(lp2059
F345
aa(lp2060
F45.600000000000001
aa(lp2061
F158.09999999999999
aa(lp2062
F57.200000000000003
aa(lp2063
F1.7
aa(lp2064
F0
aa(lp2065
F0
aa(lp2066
F0
aa(lp2067
F0
aa(lp2068
F0
aa(lp2069
F0
aa(lp2070
F0
aa(lp2071
F0
aa(lp2072
F0
aa(lp2073
F0
aa(lp2074
F0
aa(lp2075
F35.399999999999999
aa(lp2076
F192.90000000000001
aa(lp2077
F310.80000000000001
aa(lp2078
F506.5
aa(lp2079
F937.20000000000005
aa(lp2080
F681.89999999999998
aa(lp2081
F788.10000000000002
aa(lp2082
F1326.5
aa(lp2083
F923.79999999999995
aa(lp2084
F515
aa(lp2085
F462.80000000000001
aa(lp2086
F97.5
aa(lp2087
F4.4000000000000004
aa(lp2088
F0
aa(lp2089
F0
aa(lp2090
F0
aa(lp2091
F0
aa(lp2092
F0
aa(lp2093
F0
aa(lp2094
F0
aa(lp2095
F0
aa(lp2096
F0
aa(lp2097
F0
aa(lp2098
F7.2000000000000002
aa(lp2099
F440.30000000000001
aa(lp2100
F1295.9000000000001
aa(lp2101
F2100.6999999999998
aa(lp2102
F2778.1999999999998
aa(lp2103
F3249.9000000000001
aa(lp2104
F3439
aa(lp2105
F3365.6999999999998
aa(lp2106
F3021.5999999999999
aa(lp2107
F2453.0999999999999
aa(lp2108
F1695.4000000000001
aa(lp2109
F822
aa(lp2110
F71.599999999999994
aa(lp2111
F8.5999999999999996
aa(lp2112
F0
aa(lp2113
F0
aa(lp2114
F0
aa(lp2115
F0
aa(lp2116
F0
aa(lp2117
F0
aa(lp2118
F0
aa(lp2119
F0
aa(lp2120
F0
aa(lp2121
F0
aa(lp2122
F3.2000000000000002
aa(lp2123
F324.60000000000002
aa(lp2124
F1251.0999999999999
aa(lp2125
F2065.5
aa(lp2126
F2691.5
aa(lp2127
F2534.6999999999998
aa(lp2128
F3524.8000000000002
aa(lp2129
F3338.3000000000002
aa(lp2130
F2903.1999999999998
aa(lp2131
F2066
aa(lp2132
F1542
aa(lp2133
F760.20000000000005
aa(lp2134
F57.600000000000001
aa(lp2135
F5.2999999999999998
aa(lp2136
F0
aa(lp2137
F0
aa(lp2138
F0
aa(lp2139
F0
aa(lp2140
F0
aa(lp2141
F0
aa(lp2142
F0
aa(lp2143
F0
aa(lp2144
F0
aa(lp2145
F0
aa(lp2146
F3.5
aa(lp2147
F202.5
aa(lp2148
F499
aa(lp2149
F845.10000000000002
aa(lp2150
F1955.5
aa(lp2151
F1369
aa(lp2152
F1214.9000000000001
aa(lp2153
F3354.6999999999998
aa(lp2154
F2916.4000000000001
aa(lp2155
F2088
aa(lp2156
F1507.8
aa(lp2157
F785.70000000000005
aa(lp2158
F63.5
aa(lp2159
F3.2999999999999998
aa(lp2160
F0
aa(lp2161
F0
aa(lp2162
F0
aa(lp2163
F0
aa(lp2164
F0
aa(lp2165
F0
aa(lp2166
F0
aa(lp2167
F0
aa(lp2168
F0
aa(lp2169
F0
aa(lp2170
F1.8
aa(lp2171
F410.5
aa(lp2172
F1237.9000000000001
aa(lp2173
F1998.2
aa(lp2174
F2648
aa(lp2175
F3058.0999999999999
aa(lp2176
F3239.5999999999999
aa(lp2177
F3153.1999999999998
aa(lp2178
F2815
aa(lp2179
F2261.4000000000001
aa(lp2180
F1545.2
aa(lp2181
F728.60000000000002
aa(lp2182
F87.700000000000003
aa(lp2183
F4.4000000000000004
aa(lp2184
F0
aa(lp2185
F0
aa(lp2186
F0
aa(lp2187
F0
aa(lp2188
F0
aa(lp2189
F0
aa(lp2190
F0
aa(lp2191
F0
aa(lp2192
F0
aa(lp2193
F0
aa(lp2194
F3.1000000000000001
aa(lp2195
F425.69999999999999
aa(lp2196
F1131.9000000000001
aa(lp2197
F2036.3
aa(lp2198
F2681.5999999999999
aa(lp2199
F3103.5
aa(lp2200
F3262.9000000000001
aa(lp2201
F3197.0999999999999
aa(lp2202
F2660.6999999999998
aa(lp2203
F2359.1999999999998
aa(lp2204
F1166.0999999999999
aa(lp2205
F735.60000000000002
aa(lp2206
F132.30000000000001
aa(lp2207
F3.8999999999999999
aa(lp2208
F0
aa(lp2209
F0
aa(lp2210
F0
aa(lp2211
F0
aa(lp2212
F0
aa(lp2213
F0
aa(lp2214
F0
aa(lp2215
F0
aa(lp2216
F0
aa(lp2217
F0
aa(lp2218
F4.2999999999999998
aa(lp2219
F392.89999999999998
aa(lp2220
F1191.0999999999999
aa(lp2221
F1952.5999999999999
aa(lp2222
F2599.4000000000001
aa(lp2223
F2978.4000000000001
aa(lp2224
F3146.0999999999999
aa(lp2225
F2128.5999999999999
aa(lp2226
F2542.1999999999998
aa(lp2227
F2054.1999999999998
aa(lp2228
F580.60000000000002
aa(lp2229
F242.80000000000001
aa(lp2230
F30
aa(lp2231
F3.6000000000000001
aa(lp2232
F0
aa(lp2233
F0
aa(lp2234
F0
aa(lp2235
F0
aa(lp2236
F0
aa(lp2237
F0
aa(lp2238
F0
aa(lp2239
F0
aa(lp2240
F0
aa(lp2241
F0
aa(lp2242
F2.3999999999999999
aa(lp2243
F370.39999999999998
aa(lp2244
F803
aa(lp2245
F1671
aa(lp2246
F2627.1999999999998
aa(lp2247
F3026.4000000000001
aa(lp2248
F3225.8000000000002
aa(lp2249
F3004.0999999999999
aa(lp2250
F1777.5999999999999
aa(lp2251
F824.10000000000002
aa(lp2252
F382
aa(lp2253
F251.19999999999999
aa(lp2254
F14.199999999999999
aa(lp2255
F5.4000000000000004
aa(lp2256
F0
aa(lp2257
F0
aa(lp2258
F0
aa(lp2259
F0
aa(lp2260
F0
aa(lp2261
F0
aa(lp2262
F0
aa(lp2263
F0
aa(lp2264
F0
aa(lp2265
F0
aa(lp2266
F2.8999999999999999
aa(lp2267
F380.69999999999999
aa(lp2268
F1171.4000000000001
aa(lp2269
F1941
aa(lp2270
F2569.8000000000002
aa(lp2271
F3012.5999999999999
aa(lp2272
F2954.5999999999999
aa(lp2273
F2154.3000000000002
aa(lp2274
F1834.9000000000001
aa(lp2275
F2068.9000000000001
aa(lp2276
F1384.5999999999999
aa(lp2277
F752.89999999999998
aa(lp2278
F64.700000000000003
aa(lp2279
F2.6000000000000001
aa(lp2280
F0
aa(lp2281
F0
aa(lp2282
F0
aa(lp2283
F0
aa(lp2284
F0
aa(lp2285
F0
aa(lp2286
F0
aa(lp2287
F0
aa(lp2288
F0
aa(lp2289
F0
aa(lp2290
F1.5
aa(lp2291
F318.19999999999999
aa(lp2292
F1187.9000000000001
aa(lp2293
F1778.2
aa(lp2294
F2147.6999999999998
aa(lp2295
F2806.9000000000001
aa(lp2296
F2341.5999999999999
aa(lp2297
F2124.9000000000001
aa(lp2298
F2010.5
aa(lp2299
F1491.2
aa(lp2300
F583.10000000000002
aa(lp2301
F211.19999999999999
aa(lp2302
F81.400000000000006
aa(lp2303
F3.8999999999999999
aa(lp2304
F0
aa(lp2305
F0
aa(lp2306
F0
aa(lp2307
F0
aa(lp2308
F0
aa(lp2309
F0
aa(lp2310
F0
aa(lp2311
F0
aa(lp2312
F0
aa(lp2313
F0
aa(lp2314
F1.1000000000000001
aa(lp2315
F355.30000000000001
aa(lp2316
F1143.7
aa(lp2317
F1903.4000000000001
aa(lp2318
F2469.8000000000002
aa(lp2319
F1944.3
aa(lp2320
F2035.5999999999999
aa(lp2321
F2366.5
aa(lp2322
F1940.9000000000001
aa(lp2323
F247.5
aa(lp2324
F7.7000000000000002
aa(lp2325
F12.4
aa(lp2326
F11.1
aa(lp2327
F2.5
aa(lp2328
F0
aa(lp2329
F0
aa(lp2330
F0
aa(lp2331
F0
aa(lp2332
F0
aa(lp2333
F0
aa(lp2334
F0
aa(lp2335
F0
aa(lp2336
F0
aa(lp2337
F0
aa(lp2338
F1.5
aa(lp2339
F318.60000000000002
aa(lp2340
F1116.8
aa(lp2341
F1801.8
aa(lp2342
F1840
aa(lp2343
F2810.5
aa(lp2344
F2765.5999999999999
aa(lp2345
F3016
aa(lp2346
F1980.2
aa(lp2347
F1073.5999999999999
aa(lp2348
F1040.2
aa(lp2349
F353.60000000000002
aa(lp2350
F17.399999999999999
aa(lp2351
F5.7999999999999998
aa(lp2352
F0
aa(lp2353
F0
aa(lp2354
F0
aa(lp2355
F0
aa(lp2356
F0
aa(lp2357
F0
aa(lp2358
F0
aa(lp2359
F0
aa(lp2360
F0
aa(lp2361
F0
aa(lp2362
F1.6000000000000001
aa(lp2363
F373
aa(lp2364
F1082.5999999999999
aa(lp2365
F1853.5
aa(lp2366
F2504.9000000000001
aa(lp2367
F2929.3000000000002
aa(lp2368
F3106.8000000000002
aa(lp2369
F3035.6999999999998
aa(lp2370
F2692.3000000000002
aa(lp2371
F1848.7
aa(lp2372
F1310
aa(lp2373
F501.39999999999998
aa(lp2374
F22.600000000000001
aa(lp2375
F6.5999999999999996
aa(lp2376
F0
aa(lp2377
F0
aa(lp2378
F0
aa(lp2379
F0
aa(lp2380
F0
aa(lp2381
F0
aa(lp2382
F0
aa(lp2383
F0
aa(lp2384
F0
aa(lp2385
F0
aa(lp2386
F0
aa(lp2387
F193.19999999999999
aa(lp2388
F804.20000000000005
aa(lp2389
F1468.3
aa(lp2390
F1652.8
aa(lp2391
F2381.9000000000001
aa(lp2392
F2330.5999999999999
aa(lp2393
F1656.0999999999999
aa(lp2394
F1362.2
aa(lp2395
F780
aa(lp2396
F92
aa(lp2397
F182.90000000000001
aa(lp2398
F49.700000000000003
aa(lp2399
F7.2999999999999998
aa(lp2400
F0
aa(lp2401
F0
aa(lp2402
F0
aa(lp2403
F0
aa(lp2404
F0
aa(lp2405
F0
aa(lp2406
F0
aa(lp2407
F0
aa(lp2408
F0
aa(lp2409
F0
aa(lp2410
F2.2999999999999998
aa(lp2411
F368
aa(lp2412
F1160.7
aa(lp2413
F1802
aa(lp2414
F2401.3000000000002
aa(lp2415
F2944.5
aa(lp2416
F3118.8000000000002
aa(lp2417
F2582.3000000000002
aa(lp2418
F2092.1999999999998
aa(lp2419
F935.79999999999995
aa(lp2420
F446.10000000000002
aa(lp2421
F37.5
aa(lp2422
F1.3999999999999999
aa(lp2423
F4.7999999999999998
aa(lp2424
F0
aa(lp2425
F0
aa(lp2426
F0
aa(lp2427
F0
aa(lp2428
F0
aa(lp2429
F0
aa(lp2430
F0
aa(lp2431
F0
aa(lp2432
F0
aa(lp2433
F0
aa(lp2434
F0
aa(lp2435
F177.90000000000001
aa(lp2436
F756.20000000000005
aa(lp2437
F1740.2
aa(lp2438
F2218.6999999999998
aa(lp2439
F2739.3000000000002
aa(lp2440
F3027.5999999999999
aa(lp2441
F1921.3
aa(lp2442
F775.10000000000002
aa(lp2443
F1113.7
aa(lp2444
F313.39999999999998
aa(lp2445
F178.40000000000001
aa(lp2446
F18.600000000000001
aa(lp2447
F7.2999999999999998
aa(lp2448
F0
aa(lp2449
F0
aa(lp2450
F0
aa(lp2451
F0
aa(lp2452
F0
aa(lp2453
F0
aa(lp2454
F0
aa(lp2455
F0
aa(lp2456
F0
aa(lp2457
F0
aa(lp2458
F6.9000000000000004
aa(lp2459
F343.30000000000001
aa(lp2460
F1016.4
aa(lp2461
F1534.5
aa(lp2462
F1831.9000000000001
aa(lp2463
F2368.5
aa(lp2464
F2065.8000000000002
aa(lp2465
F1612.0999999999999
aa(lp2466
F2082.6999999999998
aa(lp2467
F1386.9000000000001
aa(lp2468
F1365.7
aa(lp2469
F455.39999999999998
aa(lp2470
F31.100000000000001
aa(lp2471
F3.7999999999999998
aa(lp2472
F0
aa(lp2473
F0
aa(lp2474
F0
aa(lp2475
F0
aa(lp2476
F0
aa(lp2477
F0
aa(lp2478
F0
aa(lp2479
F0
aa(lp2480
F0
aa(lp2481
F0
aa(lp2482
F1.8999999999999999
aa(lp2483
F344.60000000000002
aa(lp2484
F1100
aa(lp2485
F1824.2
aa(lp2486
F2413.5999999999999
aa(lp2487
F2686.3000000000002
aa(lp2488
F2627.4000000000001
aa(lp2489
F2660
aa(lp2490
F2526.5
aa(lp2491
F1952.5
aa(lp2492
F1251.3
aa(lp2493
F582.20000000000005
aa(lp2494
F55.299999999999997
aa(lp2495
F2.7999999999999998
aa(lp2496
F0
aa(lp2497
F0
aa(lp2498
F0
aa(lp2499
F0
aa(lp2500
F0
aa(lp2501
F0
aa(lp2502
F0
aa(lp2503
F0
aa(lp2504
F0
aa(lp2505
F0
aa(lp2506
F0.20000000000000001
aa(lp2507
F175.30000000000001
aa(lp2508
F1151.5
aa(lp2509
F1731.4000000000001
aa(lp2510
F2005.0999999999999
aa(lp2511
F1940.7
aa(lp2512
F1595.7
aa(lp2513
F1720.7
aa(lp2514
F626.5
aa(lp2515
F96.400000000000006
aa(lp2516
F7.0999999999999996
aa(lp2517
F3
aa(lp2518
F0
aa(lp2519
F3
aa(lp2520
F0
aa(lp2521
F0
aa(lp2522
F0
aa(lp2523
F0
aa(lp2524
F0
aa(lp2525
F0
aa(lp2526
F0
aa(lp2527
F0
aa(lp2528
F0
aa(lp2529
F0
aa(lp2530
F4.9000000000000004
aa(lp2531
F170.90000000000001
aa(lp2532
F274.60000000000002
aa(lp2533
F1098.9000000000001
aa(lp2534
F2346.8000000000002
aa(lp2535
F2863.5
aa(lp2536
F2428
aa(lp2537
F2270.0999999999999
aa(lp2538
F1955.7
aa(lp2539
F1406.3
aa(lp2540
F850.5
aa(lp2541
F411.69999999999999
aa(lp2542
F18
aa(lp2543
F6.2999999999999998
aa(lp2544
F0
aa(lp2545
F0
aa(lp2546
F0
aa(lp2547
F0
aa(lp2548
F0
aa(lp2549
F0
aa(lp2550
F0
aa(lp2551
F0
aa(lp2552
F0
aa(lp2553
F0
aa(lp2554
F0
aa(lp2555
F306
aa(lp2556
F1103
aa(lp2557
F1810.3
aa(lp2558
F2415.5
aa(lp2559
F2399.8000000000002
aa(lp2560
F2467.5999999999999
aa(lp2561
F1589.2
aa(lp2562
F1267.8
aa(lp2563
F1367.5
aa(lp2564
F794.89999999999998
aa(lp2565
F369.89999999999998
aa(lp2566
F21.600000000000001
aa(lp2567
F5.4000000000000004
aa(lp2568
F0
aa(lp2569
F0
aa(lp2570
F0
aa(lp2571
F0
aa(lp2572
F0
aa(lp2573
F0
aa(lp2574
F0
aa(lp2575
F0
aa(lp2576
F0
aa(lp2577
F0
aa(lp2578
F0.40000000000000002
aa(lp2579
F324.19999999999999
aa(lp2580
F496.60000000000002
aa(lp2581
F826.89999999999998
aa(lp2582
F1139.5
aa(lp2583
F1741.8
aa(lp2584
F2456.9000000000001
aa(lp2585
F2783.5999999999999
aa(lp2586
F2406.4000000000001
aa(lp2587
F1682.9000000000001
aa(lp2588
F1021.9
aa(lp2589
F436.89999999999998
aa(lp2590
F9.0999999999999996
aa(lp2591
F5.2000000000000002
aa(lp2592
F0
aa(lp2593
F0
aa(lp2594
F0
aa(lp2595
F0
aa(lp2596
F0
aa(lp2597
F0
aa(lp2598
F0
aa(lp2599
F0
aa(lp2600
F0
aa(lp2601
F0
aa(lp2602
F0
aa(lp2603
F315.19999999999999
aa(lp2604
F1063.0999999999999
aa(lp2605
F1807.5
aa(lp2606
F2402.6999999999998
aa(lp2607
F2809.8000000000002
aa(lp2608
F2948.8000000000002
aa(lp2609
F2408.8000000000002
aa(lp2610
F1834
aa(lp2611
F2030.7
aa(lp2612
F1418.3
aa(lp2613
F384
aa(lp2614
F36.100000000000001
aa(lp2615
F3.2999999999999998
aa(lp2616
F0
aa(lp2617
F0
aa(lp2618
F0
aa(lp2619
F0
aa(lp2620
F0
aa(lp2621
F0
aa(lp2622
F0
aa(lp2623
F0
aa(lp2624
F0
aa(lp2625
F0
aa(lp2626
F0.20000000000000001
aa(lp2627
F312.80000000000001
aa(lp2628
F1048.9000000000001
aa(lp2629
F1797
aa(lp2630
F2380.1999999999998
aa(lp2631
F2723
aa(lp2632
F2913.9000000000001
aa(lp2633
F2690.8000000000002
aa(lp2634
F2380.0999999999999
aa(lp2635
F1989.0999999999999
aa(lp2636
F471.39999999999998
aa(lp2637
F104.5
aa(lp2638
F5.5999999999999996
aa(lp2639
F11.300000000000001
aa(lp2640
F0
aa(lp2641
F0
aa(lp2642
F0
aa(lp2643
F0
aa(lp2644
F0
aa(lp2645
F0
aa(lp2646
F0
aa(lp2647
F0
aa(lp2648
F0
aa(lp2649
F0
aa(lp2650
F0
aa(lp2651
F231.30000000000001
aa(lp2652
F695.29999999999995
aa(lp2653
F1565.3
aa(lp2654
F2110.6999999999998
aa(lp2655
F2828.4000000000001
aa(lp2656
F2115.9000000000001
aa(lp2657
F2425.3000000000002
aa(lp2658
F2435.5999999999999
aa(lp2659
F1441.5999999999999
aa(lp2660
F921.79999999999995
aa(lp2661
F435.19999999999999
aa(lp2662
F28.5
aa(lp2663
F3.3999999999999999
aa(lp2664
F0
aa(lp2665
F0
aa(lp2666
F0
aa(lp2667
F0
aa(lp2668
F0
aa(lp2669
F0
aa(lp2670
F0
aa(lp2671
F0
aa(lp2672
F0
aa(lp2673
F0
aa(lp2674
F0
aa(lp2675
F130.90000000000001
aa(lp2676
F596.10000000000002
aa(lp2677
F613.89999999999998
aa(lp2678
F101.2
aa(lp2679
F913.89999999999998
aa(lp2680
F2405.5
aa(lp2681
F2262.1999999999998
aa(lp2682
F409.10000000000002
aa(lp2683
F473.89999999999998
aa(lp2684
F121
aa(lp2685
F55.200000000000003
aa(lp2686
F22.600000000000001
aa(lp2687
F2.3999999999999999
aa(lp2688
F0
aa(lp2689
F0
aa(lp2690
F0
aa(lp2691
F0
aa(lp2692
F0
aa(lp2693
F0
aa(lp2694
F0
aa(lp2695
F0
aa(lp2696
F0
aa(lp2697
F0
aa(lp2698
F0
aa(lp2699
F228.30000000000001
aa(lp2700
F823.39999999999998
aa(lp2701
F1452.3
aa(lp2702
F1840.8
aa(lp2703
F2629.8000000000002
aa(lp2704
F2645.5999999999999
aa(lp2705
F1749.7
aa(lp2706
F1225.2
aa(lp2707
F1413.4000000000001
aa(lp2708
F1260.8
aa(lp2709
F499.80000000000001
aa(lp2710
F20.699999999999999
aa(lp2711
F6.7000000000000002
aa(lp2712
F0
aa(lp2713
F0
aa(lp2714
F0
aa(lp2715
F0
aa(lp2716
F0
aa(lp2717
F0
aa(lp2718
F0
aa(lp2719
F0
aa(lp2720
F0
aa(lp2721
F0
aa(lp2722
F0
aa(lp2723
F310.10000000000002
aa(lp2724
F1079.2
aa(lp2725
F1829.5
aa(lp2726
F2434.9000000000001
aa(lp2727
F2195.4000000000001
aa(lp2728
F2034.5
aa(lp2729
F1280.7
aa(lp2730
F1965.5
aa(lp2731
F1804.2
aa(lp2732
F783.39999999999998
aa(lp2733
F501.30000000000001
aa(lp2734
F16.600000000000001
aa(lp2735
F2.3999999999999999
aa(lp2736
F0
aa(lp2737
F0
aa(lp2738
F0
aa(lp2739
F0
aa(lp2740
F0
aa(lp2741
F0
aa(lp2742
F0
aa(lp2743
F0
aa(lp2744
F0
aa(lp2745
F0
aa(lp2746
F1.5
aa(lp2747
F255.30000000000001
aa(lp2748
F624.60000000000002
aa(lp2749
F1978.7
aa(lp2750
F2387.0999999999999
aa(lp2751
F2834.1999999999998
aa(lp2752
F2843.1999999999998
aa(lp2753
F2235.4000000000001
aa(lp2754
F1614.7
aa(lp2755
F1575
aa(lp2756
F1192.7
aa(lp2757
F436
aa(lp2758
F15
aa(lp2759
F3.2000000000000002
aa(lp2760
F0
aa(lp2761
F0
aa(lp2762
F0
aa(lp2763
F0
aa(lp2764
F0
aa(lp2765
F0
aa(lp2766
F0
aa(lp2767
F0
aa(lp2768
F0
aa(lp2769
F0
aa(lp2770
F0
aa(lp2771
F185.19999999999999
aa(lp2772
F836.20000000000005
aa(lp2773
F1649.9000000000001
aa(lp2774
F2349.6999999999998
aa(lp2775
F2644.0999999999999
aa(lp2776
F2743.3000000000002
aa(lp2777
F2755.1999999999998
aa(lp2778
F1584.5
aa(lp2779
F759.5
aa(lp2780
F147
aa(lp2781
F22.199999999999999
aa(lp2782
F5.5
aa(lp2783
F2.3999999999999999
aa(lp2784
F0
aa(lp2785
F0
aa(lp2786
F0
aa(lp2787
F0
aa(lp2788
F0
aa(lp2789
F0
aa(lp2790
F0
aa(lp2791
F0
aa(lp2792
F0
aa(lp2793
F0
aa(lp2794
F0
aa(lp2795
F301.19999999999999
aa(lp2796
F770.39999999999998
aa(lp2797
F913.39999999999998
aa(lp2798
F2393.5
aa(lp2799
F1014.4
aa(lp2800
F1226.5999999999999
aa(lp2801
F1833.5999999999999
aa(lp2802
F107.3
aa(lp2803
F53.600000000000001
aa(lp2804
F94.400000000000006
aa(lp2805
F126.40000000000001
aa(lp2806
F14.699999999999999
aa(lp2807
F3
aa(lp2808
F0
aa(lp2809
F0
aa(lp2810
F0
aa(lp2811
F0
aa(lp2812
F0
aa(lp2813
F0
aa(lp2814
F0
aa(lp2815
F0
aa(lp2816
F0
aa(lp2817
F0
aa(lp2818
F0
aa(lp2819
F179.59999999999999
aa(lp2820
F570.70000000000005
aa(lp2821
F1401
aa(lp2822
F1928.5999999999999
aa(lp2823
F2384.5999999999999
aa(lp2824
F1978.0999999999999
aa(lp2825
F1703
aa(lp2826
F1541.0999999999999
aa(lp2827
F1059.9000000000001
aa(lp2828
F550.89999999999998
aa(lp2829
F202.09999999999999
aa(lp2830
F5.9000000000000004
aa(lp2831
F2.3999999999999999
aa(lp2832
F0
aa(lp2833
F0
aa(lp2834
F0
aa(lp2835
F0
aa(lp2836
F0
aa(lp2837
F0
aa(lp2838
F0
aa(lp2839
F0
aa(lp2840
F0
aa(lp2841
F0
aa(lp2842
F0
aa(lp2843
F123.09999999999999
aa(lp2844
F440.39999999999998
aa(lp2845
F925.89999999999998
aa(lp2846
F1341.2
aa(lp2847
F1495.2
aa(lp2848
F1564.5999999999999
aa(lp2849
F1724.7
aa(lp2850
F1434.5999999999999
aa(lp2851
F1137.9000000000001
aa(lp2852
F945.39999999999998
aa(lp2853
F190.5
aa(lp2854
F1.1000000000000001
aa(lp2855
F1.3
aa(lp2856
F0
aa(lp2857
F0
aa(lp2858
F0
aa(lp2859
F0
aa(lp2860
F0
aa(lp2861
F0
aa(lp2862
F0
aa(lp2863
F0
aa(lp2864
F0
aa(lp2865
F0
aa(lp2866
F0.29999999999999999
aa(lp2867
F51.600000000000001
aa(lp2868
F155.90000000000001
aa(lp2869
F308
aa(lp2870
F256.80000000000001
aa(lp2871
F562
aa(lp2872
F1287
aa(lp2873
F667.20000000000005
aa(lp2874
F456.89999999999998
aa(lp2875
F298.39999999999998
aa(lp2876
F242.90000000000001
aa(lp2877
F98.900000000000006
aa(lp2878
F1.8
aa(lp2879
F8.5
aa(lp2880
F0
aa(lp2881
F0
aa(lp2882
F0
aa(lp2883
F0
aa(lp2884
F0
aa(lp2885
F0
aa(lp2886
F0
aa(lp2887
F0
aa(lp2888
F0
aa(lp2889
F0
aa(lp2890
F0
aa(lp2891
F133.90000000000001
aa(lp2892
F471.39999999999998
aa(lp2893
F937.20000000000005
aa(lp2894
F1671.3
aa(lp2895
F1498.3
aa(lp2896
F2558
aa(lp2897
F2042.0999999999999
aa(lp2898
F2391.8000000000002
aa(lp2899
F1949.0999999999999
aa(lp2900
F1227.9000000000001
aa(lp2901
F425.5
aa(lp2902
F4.5
aa(lp2903
F6.9000000000000004
aa(lp2904
F0
aa(lp2905
F0
aa(lp2906
F0
aa(lp2907
F0
aa(lp2908
F0
aa(lp2909
F0
aa(lp2910
F0
aa(lp2911
F0
aa(lp2912
F0
aa(lp2913
F0
aa(lp2914
F0
aa(lp2915
F332.80000000000001
aa(lp2916
F1155
aa(lp2917
F1950.3
aa(lp2918
F2497.4000000000001
aa(lp2919
F2803.6999999999998
aa(lp2920
F2923.6999999999998
aa(lp2921
F2825.1999999999998
aa(lp2922
F2486.1999999999998
aa(lp2923
F1924
aa(lp2924
F1231.5999999999999
aa(lp2925
F432.60000000000002
aa(lp2926
F3.6000000000000001
aa(lp2927
F4.2000000000000002
aa(lp2928
F0
aa(lp2929
F0
aa(lp2930
F0
aa(lp2931
F0
aa(lp2932
F0
aa(lp2933
F0
aa(lp2934
F0
aa(lp2935
F0
aa(lp2936
F0
aa(lp2937
F0
aa(lp2938
F0
aa(lp2939
F319.39999999999998
aa(lp2940
F1120.3
aa(lp2941
F1896.5
aa(lp2942
F2437.6999999999998
aa(lp2943
F2752.3000000000002
aa(lp2944
F2882.9000000000001
aa(lp2945
F2772.6999999999998
aa(lp2946
F2401
aa(lp2947
F1874.8
aa(lp2948
F1190.5
aa(lp2949
F413.89999999999998
aa(lp2950
F3.2999999999999998
aa(lp2951
F6.5999999999999996
aa(lp2952
F0
aa(lp2953
F0
aa(lp2954
F0
aa(lp2955
F0
aa(lp2956
F0
aa(lp2957
F0
aa(lp2958
F0
aa(lp2959
F0
aa(lp2960
F0
aa(lp2961
F0
aa(lp2962
F0
aa(lp2963
F297.19999999999999
aa(lp2964
F1082.5999999999999
aa(lp2965
F1859.7
aa(lp2966
F2409.1999999999998
aa(lp2967
F2745.3000000000002
aa(lp2968
F2859.0999999999999
aa(lp2969
F2769.1999999999998
aa(lp2970
F2368.6999999999998
aa(lp2971
F1814.2
aa(lp2972
F1127.4000000000001
aa(lp2973
F379.19999999999999
aa(lp2974
F2.2000000000000002
aa(lp2975
F7
aa(lp2976
F0
aa(lp2977
F0
aa(lp2978
F0
aa(lp2979
F0
aa(lp2980
F0
aa(lp2981
F0
aa(lp2982
F0
aa(lp2983
F0
aa(lp2984
F0
aa(lp2985
F0
aa(lp2986
F0
aa(lp2987
F286.69999999999999
aa(lp2988
F1047.8
aa(lp2989
F1796.8
aa(lp2990
F2335.4000000000001
aa(lp2991
F2641.6999999999998
aa(lp2992
F2759
aa(lp2993
F2674
aa(lp2994
F2304
aa(lp2995
F1786.5999999999999
aa(lp2996
F1112.4000000000001
aa(lp2997
F369.39999999999998
aa(lp2998
F1.7
aa(lp2999
F4.9000000000000004
aa(lp3000
F0
aa(lp3001
F0
aa(lp3002
F0
aa(lp3003
F0
aa(lp3004
F0
aa(lp3005
F0
aa(lp3006
F0
aa(lp3007
F0
aa(lp3008
F0
aa(lp3009
F0
aa(lp3010
F0
aa(lp3011
F265.19999999999999
aa(lp3012
F1008
aa(lp3013
F1745.9000000000001
aa(lp3014
F2275.1999999999998
aa(lp3015
F2589.0999999999999
aa(lp3016
F2623.5999999999999
aa(lp3017
F2610.0999999999999
aa(lp3018
F2384.1999999999998
aa(lp3019
F1881
aa(lp3020
F1119.2
aa(lp3021
F356
aa(lp3022
F4.7999999999999998
aa(lp3023
F1.3
aa(lp3024
F0
aa(lp3025
F0
aa(lp3026
F0
aa(lp3027
F0
aa(lp3028
F0
aa(lp3029
F0
aa(lp3030
F0
aa(lp3031
F0
aa(lp3032
F0
aa(lp3033
F0
aa(lp3034
F0
aa(lp3035
F254.19999999999999
aa(lp3036
F981.89999999999998
aa(lp3037
F1720
aa(lp3038
F2253.0999999999999
aa(lp3039
F2563.8000000000002
aa(lp3040
F2760.0999999999999
aa(lp3041
F2771.1999999999998
aa(lp3042
F2487.6999999999998
aa(lp3043
F1958
aa(lp3044
F696
aa(lp3045
F246.59999999999999
aa(lp3046
F1.5
aa(lp3047
F3
aa(lp3048
F0
aa(lp3049
F0
aa(lp3050
F0
aa(lp3051
F0
aa(lp3052
F0
aa(lp3053
F0
aa(lp3054
F0
aa(lp3055
F0
aa(lp3056
F0
aa(lp3057
F0
aa(lp3058
F0
aa(lp3059
F254
aa(lp3060
F986.70000000000005
aa(lp3061
F1725.5999999999999
aa(lp3062
F2258.9000000000001
aa(lp3063
F2575.5
aa(lp3064
F2700.4000000000001
aa(lp3065
F2591.9000000000001
aa(lp3066
F1964.8
aa(lp3067
F1614.4000000000001
aa(lp3068
F1179.4000000000001
aa(lp3069
F397.80000000000001
aa(lp3070
F2.3999999999999999
aa(lp3071
F5.2000000000000002
aa(lp3072
F0
aa(lp3073
F0
aa(lp3074
F0
aa(lp3075
F0
aa(lp3076
F0
aa(lp3077
F0
aa(lp3078
F0
aa(lp3079
F0
aa(lp3080
F0
aa(lp3081
F0
aa(lp3082
F0
aa(lp3083
F244
aa(lp3084
F966.70000000000005
aa(lp3085
F1702
aa(lp3086
F2237.9000000000001
aa(lp3087
F2555.6999999999998
aa(lp3088
F2690.9000000000001
aa(lp3089
F2636.1999999999998
aa(lp3090
F2197.5999999999999
aa(lp3091
F1316.5
aa(lp3092
F1126.2
aa(lp3093
F340.5
aa(lp3094
F1.3999999999999999
aa(lp3095
F4.0999999999999996
aa(lp3096
F0
aa(lp3097
F0
aa(lp3098
F0
aa(lp3099
F0
aa(lp3100
F0
aa(lp3101
F0
aa(lp3102
F0
aa(lp3103
F0
aa(lp3104
F0
aa(lp3105
F0
aa(lp3106
F0
aa(lp3107
F252.69999999999999
aa(lp3108
F967.39999999999998
aa(lp3109
F1687
aa(lp3110
F2211.9000000000001
aa(lp3111
F2515.6999999999998
aa(lp3112
F2649
aa(lp3113
F2215.6999999999998
aa(lp3114
F2084.6999999999998
aa(lp3115
F1875.5999999999999
aa(lp3116
F970.79999999999995
aa(lp3117
F273
aa(lp3118
F0
aa(lp3119
F5.4000000000000004
aa(lp3120
F0
aa(lp3121
F0
aa(lp3122
F0
aa(lp3123
F0
aa(lp3124
F0
aa(lp3125
F0
aa(lp3126
F0
aa(lp3127
F0
aa(lp3128
F0
aa(lp3129
F0
aa(lp3130
F0
aa(lp3131
F217.69999999999999
aa(lp3132
F877.20000000000005
aa(lp3133
F1651.2
aa(lp3134
F2209.9000000000001
aa(lp3135
F2070.5
aa(lp3136
F2466.3000000000002
aa(lp3137
F1973.5
aa(lp3138
F1333
aa(lp3139
F1182.7
aa(lp3140
F839.79999999999995
aa(lp3141
F230.5
aa(lp3142
F0.10000000000000001
aa(lp3143
F2.3999999999999999
aa(lp3144
F0
aa(lp3145
F0
aa(lp3146
F0
aa(lp3147
F0
aa(lp3148
F0
aa(lp3149
F0
aa(lp3150
F0
aa(lp3151
F0
aa(lp3152
F0
aa(lp3153
F0
aa(lp3154
F0
aa(lp3155
F124.90000000000001
aa(lp3156
F936.29999999999995
aa(lp3157
F834.20000000000005
aa(lp3158
F1900.5
aa(lp3159
F2512.4000000000001
aa(lp3160
F2626.6999999999998
aa(lp3161
F2319.5
aa(lp3162
F1602
aa(lp3163
F1515.7
aa(lp3164
F982.29999999999995
aa(lp3165
F187.5
aa(lp3166
F1.3999999999999999
aa(lp3167
F4.7999999999999998
aa(lp3168
F0
aa(lp3169
F0
aa(lp3170
F0
aa(lp3171
F0
aa(lp3172
F0
aa(lp3173
F0
aa(lp3174
F0
aa(lp3175
F0
aa(lp3176
F0
aa(lp3177
F0
aa(lp3178
F0.10000000000000001
aa(lp3179
F3.1000000000000001
aa(lp3180
F83
aa(lp3181
F181.5
aa(lp3182
F495.89999999999998
aa(lp3183
F1199.0999999999999
aa(lp3184
F1161.2
aa(lp3185
F1317.7
aa(lp3186
F767.10000000000002
aa(lp3187
F622.20000000000005
aa(lp3188
F602
aa(lp3189
F216.40000000000001
aa(lp3190
F0
aa(lp3191
F7.5999999999999996
aa(lp3192
F0
aa(lp3193
F0
aa(lp3194
F0
aa(lp3195
F0
aa(lp3196
F0
aa(lp3197
F0
aa(lp3198
F0
aa(lp3199
F0
aa(lp3200
F0
aa(lp3201
F0
aa(lp3202
F0
aa(lp3203
F51.200000000000003
aa(lp3204
F155
aa(lp3205
F94.599999999999994
aa(lp3206
F26.600000000000001
aa(lp3207
F44.299999999999997
aa(lp3208
F388
aa(lp3209
F1528.3
aa(lp3210
F1102.5
aa(lp3211
F782.39999999999998
aa(lp3212
F344.60000000000002
aa(lp3213
F67.5
aa(lp3214
F0
aa(lp3215
F3.7000000000000002
aa(lp3216
F0
aa(lp3217
F0
aa(lp3218
F0
aa(lp3219
F0
aa(lp3220
F0
aa(lp3221
F0
aa(lp3222
F0
aa(lp3223
F0
aa(lp3224
F0
aa(lp3225
F0
aa(lp3226
F0
aa(lp3227
F229.40000000000001
aa(lp3228
F866.10000000000002
aa(lp3229
F1453.4000000000001
aa(lp3230
F1965.5999999999999
aa(lp3231
F1806.7
aa(lp3232
F1361.4000000000001
aa(lp3233
F1192.7
aa(lp3234
F593.5
aa(lp3235
F329.30000000000001
aa(lp3236
F120.3
aa(lp3237
F53.799999999999997
aa(lp3238
F0
aa(lp3239
F2.2000000000000002
aa(lp3240
F0
aa(lp3241
F0
aa(lp3242
F0
aa(lp3243
F0
aa(lp3244
F0
aa(lp3245
F0
aa(lp3246
F0
aa(lp3247
F0
aa(lp3248
F0
aa(lp3249
F0
aa(lp3250
F0
aa(lp3251
F190.09999999999999
aa(lp3252
F836.70000000000005
aa(lp3253
F1497.0999999999999
aa(lp3254
F2003.5999999999999
aa(lp3255
F2412.9000000000001
aa(lp3256
F1985.5
aa(lp3257
F1411.5
aa(lp3258
F1472.5
aa(lp3259
F1588.7
aa(lp3260
F987.5
aa(lp3261
F309.39999999999998
aa(lp3262
F0.69999999999999996
aa(lp3263
F3.7000000000000002
aa(lp3264
F0
aa(lp3265
F0
aa(lp3266
F0
aa(lp3267
F0
aa(lp3268
F0
aa(lp3269
F0
aa(lp3270
F0
aa(lp3271
F0
aa(lp3272
F0
aa(lp3273
F0
aa(lp3274
F0
aa(lp3275
F206.40000000000001
aa(lp3276
F909.79999999999995
aa(lp3277
F1608.5
aa(lp3278
F2167.5
aa(lp3279
F2503.3000000000002
aa(lp3280
F2350
aa(lp3281
F2361.8000000000002
aa(lp3282
F2020.9000000000001
aa(lp3283
F1398.5999999999999
aa(lp3284
F1010.4
aa(lp3285
F291.80000000000001
aa(lp3286
F0.10000000000000001
aa(lp3287
F7.7000000000000002
aa(lp3288
F0
aa(lp3289
F0
aa(lp3290
F0
aa(lp3291
F0
aa(lp3292
F0
aa(lp3293
F0
aa(lp3294
F0
aa(lp3295
F0
aa(lp3296
F0
aa(lp3297
F0
aa(lp3298
F0
aa(lp3299
F125.7
aa(lp3300
F491
aa(lp3301
F1569.7
aa(lp3302
F2101.6999999999998
aa(lp3303
F2457.5
aa(lp3304
F2564
aa(lp3305
F2298
aa(lp3306
F1881.5999999999999
aa(lp3307
F1548.3
aa(lp3308
F880.5
aa(lp3309
F282.69999999999999
aa(lp3310
F0
aa(lp3311
F6.0999999999999996
aa(lp3312
F0
aa(lp3313
F0
aa(lp3314
F0
aa(lp3315
F0
aa(lp3316
F0
aa(lp3317
F0
aa(lp3318
F0
aa(lp3319
F0
aa(lp3320
F0
aa(lp3321
F0
aa(lp3322
F0
aa(lp3323
F202.59999999999999
aa(lp3324
F900.79999999999995
aa(lp3325
F1618.9000000000001
aa(lp3326
F2154.1999999999998
aa(lp3327
F2486.0999999999999
aa(lp3328
F2605.9000000000001
aa(lp3329
F2275.6999999999998
aa(lp3330
F1888.7
aa(lp3331
F1517.7
aa(lp3332
F971
aa(lp3333
F273.60000000000002
aa(lp3334
F0
aa(lp3335
F4.5
aa(lp3336
F0
aa(lp3337
F0
aa(lp3338
F0
aa(lp3339
F0
aa(lp3340
F0
aa(lp3341
F0
aa(lp3342
F0
aa(lp3343
F0
aa(lp3344
F0
aa(lp3345
F0
aa(lp3346
F0
aa(lp3347
F100.09999999999999
aa(lp3348
F444.10000000000002
aa(lp3349
F960.60000000000002
aa(lp3350
F1639.5
aa(lp3351
F1737.2
aa(lp3352
F2020
aa(lp3353
F2554.9000000000001
aa(lp3354
F2070.9000000000001
aa(lp3355
F1304.5999999999999
aa(lp3356
F979.10000000000002
aa(lp3357
F303.39999999999998
aa(lp3358
F0
aa(lp3359
F4.7000000000000002
aa(lp3360
F0
aa(lp3361
F0
aa(lp3362
F0
aa(lp3363
F0
aa(lp3364
F0
aa(lp3365
F0
aa(lp3366
F0
aa(lp3367
F0
aa(lp3368
F0
aa(lp3369
F0
aa(lp3370
F0
aa(lp3371
F195.69999999999999
aa(lp3372
F883.5
aa(lp3373
F1591.9000000000001
aa(lp3374
F2112.6999999999998
aa(lp3375
F2450.6999999999998
aa(lp3376
F2571.9000000000001
aa(lp3377
F2144.4000000000001
aa(lp3378
F1880.5
aa(lp3379
F959.39999999999998
aa(lp3380
F1046.5999999999999
aa(lp3381
F265.30000000000001
aa(lp3382
F0
aa(lp3383
F4.4000000000000004
aa(lp3384
F0
aa(lp3385
F0
aa(lp3386
F0
aa(lp3387
F0
aa(lp3388
F0
aa(lp3389
F0
aa(lp3390
F0
aa(lp3391
F0
aa(lp3392
F0
aa(lp3393
F0
aa(lp3394
F0
aa(lp3395
F253.5
aa(lp3396
F778.79999999999995
aa(lp3397
F1205.2
aa(lp3398
F1554.2
aa(lp3399
F1496.7
aa(lp3400
F1482.3
aa(lp3401
F1384.5
aa(lp3402
F1478.0999999999999
aa(lp3403
F880.70000000000005
aa(lp3404
F517.5
aa(lp3405
F156.59999999999999
aa(lp3406
F0
aa(lp3407
F3.3999999999999999
aa(lp3408
F0
aa(lp3409
F0
aa(lp3410
F0
aa(lp3411
F0
aa(lp3412
F0
aa(lp3413
F0
aa(lp3414
F0
aa(lp3415
F0
aa(lp3416
F0
aa(lp3417
F0
aa(lp3418
F0
aa(lp3419
F133.19999999999999
aa(lp3420
F792.10000000000002
aa(lp3421
F1543.3
aa(lp3422
F2064.4000000000001
aa(lp3423
F2405.8000000000002
aa(lp3424
F2522
aa(lp3425
F2504.0999999999999
aa(lp3426
F2071.8000000000002
aa(lp3427
F1388.5
aa(lp3428
F1080.5999999999999
aa(lp3429
F347.30000000000001
aa(lp3430
F0
aa(lp3431
F4
aa(lp3432
F0
aa(lp3433
F0
aa(lp3434
F0
aa(lp3435
F0
aa(lp3436
F0
aa(lp3437
F0
aa(lp3438
F0
aa(lp3439
F0
aa(lp3440
F0
aa(lp3441
F0
aa(lp3442
F0
aa(lp3443
F123.90000000000001
aa(lp3444
F548.10000000000002
aa(lp3445
F676.20000000000005
aa(lp3446
F930.10000000000002
aa(lp3447
F960.29999999999995
aa(lp3448
F977.20000000000005
aa(lp3449
F1068.8
aa(lp3450
F1005.6
aa(lp3451
F754.89999999999998
aa(lp3452
F370.10000000000002
aa(lp3453
F18.100000000000001
aa(lp3454
F0
aa(lp3455
F4.2999999999999998
aa(lp3456
F0
aa(lp3457
F0
aa(lp3458
F0
aa(lp3459
F0
aa(lp3460
F0
aa(lp3461
F0
aa(lp3462
F0
aa(lp3463
F0
aa(lp3464
F0
aa(lp3465
F0
aa(lp3466
F0
aa(lp3467
F83.700000000000003
aa(lp3468
F300.19999999999999
aa(lp3469
F485.30000000000001
aa(lp3470
F763.70000000000005
aa(lp3471
F948.39999999999998
aa(lp3472
F1378
aa(lp3473
F1108.4000000000001
aa(lp3474
F1342.5999999999999
aa(lp3475
F959.10000000000002
aa(lp3476
F475.10000000000002
aa(lp3477
F99
aa(lp3478
F0
aa(lp3479
F4.0999999999999996
aa(lp3480
F0
aa(lp3481
F0
aa(lp3482
F0
aa(lp3483
F0
aa(lp3484
F0
aa(lp3485
F0
aa(lp3486
F0
aa(lp3487
F0
aa(lp3488
F0
aa(lp3489
F0
aa(lp3490
F0
aa(lp3491
F106
aa(lp3492
F363.10000000000002
aa(lp3493
F857.79999999999995
aa(lp3494
F836.60000000000002
aa(lp3495
F936.5
aa(lp3496
F1029
aa(lp3497
F1159
aa(lp3498
F1096.0999999999999
aa(lp3499
F770.5
aa(lp3500
F455
aa(lp3501
F171.5
aa(lp3502
F0
aa(lp3503
F3.7999999999999998
aa(lp3504
F0
aa(lp3505
F0
aa(lp3506
F0
aa(lp3507
F0
aa(lp3508
F0
aa(lp3509
F0
aa(lp3510
F0
aa(lp3511
F0
aa(lp3512
F0
aa(lp3513
F0
aa(lp3514
F0
aa(lp3515
F98.099999999999994
aa(lp3516
F486.5
aa(lp3517
F1234.4000000000001
aa(lp3518
F1823.5
aa(lp3519
F2361.5999999999999
aa(lp3520
F2259.8000000000002
aa(lp3521
F2260.9000000000001
aa(lp3522
F1436
aa(lp3523
F1101.7
aa(lp3524
F864.10000000000002
aa(lp3525
F195.80000000000001
aa(lp3526
F0
aa(lp3527
F1.1000000000000001
aa(lp3528
F0
aa(lp3529
F0
aa(lp3530
F0
aa(lp3531
F0
aa(lp3532
F0
aa(lp3533
F0
aa(lp3534
F0
aa(lp3535
F0
aa(lp3536
F0
aa(lp3537
F0
aa(lp3538
F0
aa(lp3539
F109.8
aa(lp3540
F390.5
aa(lp3541
F1031
aa(lp3542
F1841.2
aa(lp3543
F1842.2
aa(lp3544
F2506.3000000000002
aa(lp3545
F1620.5
aa(lp3546
F100.59999999999999
aa(lp3547
F44.600000000000001
aa(lp3548
F133.19999999999999
aa(lp3549
F291
aa(lp3550
F5.0999999999999996
aa(lp3551
F2.1000000000000001
aa(lp3552
F0
aa(lp3553
F0
aa(lp3554
F0
aa(lp3555
F0
aa(lp3556
F0
aa(lp3557
F0
aa(lp3558
F0
aa(lp3559
F0
aa(lp3560
F0
aa(lp3561
F0
aa(lp3562
F0
aa(lp3563
F50.299999999999997
aa(lp3564
F331.5
aa(lp3565
F306
aa(lp3566
F950.39999999999998
aa(lp3567
F2021.2
aa(lp3568
F2306.4000000000001
aa(lp3569
F2399.8000000000002
aa(lp3570
F1917.9000000000001
aa(lp3571
F1517.4000000000001
aa(lp3572
F930.60000000000002
aa(lp3573
F251.09999999999999
aa(lp3574
F0
aa(lp3575
F4.0999999999999996
aa(lp3576
F0
aa(lp3577
F0
aa(lp3578
F0
aa(lp3579
F0
aa(lp3580
F0
aa(lp3581
F0
aa(lp3582
F0
aa(lp3583
F0
aa(lp3584
F0
aa(lp3585
F0
aa(lp3586
F0
aa(lp3587
F151.80000000000001
aa(lp3588
F803.79999999999995
aa(lp3589
F1513.4000000000001
aa(lp3590
F2092.8000000000002
aa(lp3591
F2406.1999999999998
aa(lp3592
F2526.8000000000002
aa(lp3593
F2461.1999999999998
aa(lp3594
F2034.3
aa(lp3595
F1540.9000000000001
aa(lp3596
F908.39999999999998
aa(lp3597
F239.40000000000001
aa(lp3598
F0
aa(lp3599
F4.7999999999999998
aa(lp3600
F0
aa(lp3601
F0
aa(lp3602
F0
aa(lp3603
F0
aa(lp3604
F0
aa(lp3605
F0
aa(lp3606
F0
aa(lp3607
F0
aa(lp3608
F0
aa(lp3609
F0
aa(lp3610
F0
aa(lp3611
F155.69999999999999
aa(lp3612
F808.60000000000002
aa(lp3613
F1498.2
aa(lp3614
F2014.0999999999999
aa(lp3615
F2349.0999999999999
aa(lp3616
F2475.0999999999999
aa(lp3617
F2384.0999999999999
aa(lp3618
F1931.2
aa(lp3619
F1559
aa(lp3620
F904
aa(lp3621
F235.80000000000001
aa(lp3622
F0
aa(lp3623
F3.5
aa(lp3624
F0
aa(lp3625
F0
aa(lp3626
F0
aa(lp3627
F0
aa(lp3628
F0
aa(lp3629
F0
aa(lp3630
F0
aa(lp3631
F0
aa(lp3632
F0
aa(lp3633
F0
aa(lp3634
F0
aa(lp3635
F153.19999999999999
aa(lp3636
F798.5
aa(lp3637
F1446.4000000000001
aa(lp3638
F1994.9000000000001
aa(lp3639
F2184
aa(lp3640
F1536.0999999999999
aa(lp3641
F1737.5999999999999
aa(lp3642
F1886.5999999999999
aa(lp3643
F1187.7
aa(lp3644
F673.79999999999995
aa(lp3645
F338.80000000000001
aa(lp3646
F0.80000000000000004
aa(lp3647
F1.5
aa(lp3648
F0
aa(lp3649
F0
aa(lp3650
F0
aa(lp3651
F0
aa(lp3652
F0
aa(lp3653
F0
aa(lp3654
F0
aa(lp3655
F0
aa(lp3656
F0
aa(lp3657
F0
aa(lp3658
F0
aa(lp3659
F155.90000000000001
aa(lp3660
F750
aa(lp3661
F1445.4000000000001
aa(lp3662
F1982.5
aa(lp3663
F2259.1999999999998
aa(lp3664
F2669.8000000000002
aa(lp3665
F2544.0999999999999
aa(lp3666
F1965.7
aa(lp3667
F1459.7
aa(lp3668
F1032.5999999999999
aa(lp3669
F304.5
aa(lp3670
F0
aa(lp3671
F1.8999999999999999
aa(lp3672
F0
aa(lp3673
F0
aa(lp3674
F0
aa(lp3675
F0
aa(lp3676
F0
aa(lp3677
F0
aa(lp3678
F0
aa(lp3679
F0
aa(lp3680
F0
aa(lp3681
F0
aa(lp3682
F0
aa(lp3683
F146.5
aa(lp3684
F781.29999999999995
aa(lp3685
F1468.9000000000001
aa(lp3686
F1989.8
aa(lp3687
F2305.5
aa(lp3688
F2465.5
aa(lp3689
F2393.0999999999999
aa(lp3690
F1962.0999999999999
aa(lp3691
F1553.5
aa(lp3692
F883.5
aa(lp3693
F228.5
aa(lp3694
F0
aa(lp3695
F3.3999999999999999
aa(lp3696
F0
aa(lp3697
F0
aa(lp3698
F0
aa(lp3699
F0
aa(lp3700
F0
aa(lp3701
F0
aa(lp3702
F0
aa(lp3703
F0
aa(lp3704
F0
aa(lp3705
F0
aa(lp3706
F0
aa(lp3707
F144
aa(lp3708
F780.20000000000005
aa(lp3709
F1451.5999999999999
aa(lp3710
F1990.7
aa(lp3711
F2266.0999999999999
aa(lp3712
F2143.5999999999999
aa(lp3713
F2244.5
aa(lp3714
F917.5
aa(lp3715
F888.89999999999998
aa(lp3716
F716.10000000000002
aa(lp3717
F213.40000000000001
aa(lp3718
F0
aa(lp3719
F3.2000000000000002
aa(lp3720
F0
aa(lp3721
F0
aa(lp3722
F0
aa(lp3723
F0
aa(lp3724
F0
aa(lp3725
F0
aa(lp3726
F0
aa(lp3727
F0
aa(lp3728
F0
aa(lp3729
F0
aa(lp3730
F0
aa(lp3731
F105.3
aa(lp3732
F656.60000000000002
aa(lp3733
F1204.2
aa(lp3734
F954
aa(lp3735
F1919.0999999999999
aa(lp3736
F1643.3
aa(lp3737
F1947.3
aa(lp3738
F1558.5999999999999
aa(lp3739
F1172.2
aa(lp3740
F706.29999999999995
aa(lp3741
F173
aa(lp3742
F0
aa(lp3743
F7.5999999999999996
aa(lp3744
F0
aa(lp3745
F0
aa(lp3746
F0
aa(lp3747
F0
aa(lp3748
F0
aa(lp3749
F0
aa(lp3750
F0
aa(lp3751
F0
aa(lp3752
F0
aa(lp3753
F0
aa(lp3754
F0
aa(lp3755
F20.800000000000001
aa(lp3756
F109.8
aa(lp3757
F191.80000000000001
aa(lp3758
F297.10000000000002
aa(lp3759
F1018.9
aa(lp3760
F498.80000000000001
aa(lp3761
F373.80000000000001
aa(lp3762
F513.70000000000005
aa(lp3763
F314.5
aa(lp3764
F167.5
aa(lp3765
F48
aa(lp3766
F0
aa(lp3767
F14.9
aa(lp3768
F0
aa(lp3769
F0
aa(lp3770
F0
aa(lp3771
F0
aa(lp3772
F0
aa(lp3773
F0
aa(lp3774
F0
aa(lp3775
F0
aa(lp3776
F0
aa(lp3777
F0
aa(lp3778
F0
aa(lp3779
F27.399999999999999
aa(lp3780
F408.5
aa(lp3781
F569.89999999999998
aa(lp3782
F636.60000000000002
aa(lp3783
F251.90000000000001
aa(lp3784
F265.69999999999999
aa(lp3785
F411.39999999999998
aa(lp3786
F266
aa(lp3787
F432.10000000000002
aa(lp3788
F192.40000000000001
aa(lp3789
F27
aa(lp3790
F0.29999999999999999
aa(lp3791
F8
aa(lp3792
F0
aa(lp3793
F0
aa(lp3794
F0
aa(lp3795
F0
aa(lp3796
F0
aa(lp3797
F0
aa(lp3798
F0
aa(lp3799
F0
aa(lp3800
F0
aa(lp3801
F0
aa(lp3802
F0
aa(lp3803
F36.299999999999997
aa(lp3804
F345.19999999999999
aa(lp3805
F822.20000000000005
aa(lp3806
F1349.9000000000001
aa(lp3807
F1068.5
aa(lp3808
F1157.3
aa(lp3809
F1536.7
aa(lp3810
F802.29999999999995
aa(lp3811
F770.10000000000002
aa(lp3812
F561.89999999999998
aa(lp3813
F122.09999999999999
aa(lp3814
F0
aa(lp3815
F13.199999999999999
aa(lp3816
F0
aa(lp3817
F0
aa(lp3818
F0
aa(lp3819
F0
aa(lp3820
F0
aa(lp3821
F0
aa(lp3822
F0
aa(lp3823
F0
aa(lp3824
F0
aa(lp3825
F0
aa(lp3826
F0
aa(lp3827
F54.799999999999997
aa(lp3828
F260.30000000000001
aa(lp3829
F690.39999999999998
aa(lp3830
F1598.7
aa(lp3831
F1203.8
aa(lp3832
F1519.0999999999999
aa(lp3833
F1428.0999999999999
aa(lp3834
F1091
aa(lp3835
F715.60000000000002
aa(lp3836
F445.10000000000002
aa(lp3837
F142.69999999999999
aa(lp3838
F0.10000000000000001
aa(lp3839
F5.9000000000000004
aa(lp3840
F0
aa(lp3841
F0
aa(lp3842
F0
aa(lp3843
F0
aa(lp3844
F0
aa(lp3845
F0
aa(lp3846
F0
aa(lp3847
F0
aa(lp3848
F0
aa(lp3849
F0
aa(lp3850
F0
aa(lp3851
F56.899999999999999
aa(lp3852
F657.39999999999998
aa(lp3853
F954.29999999999995
aa(lp3854
F1861.9000000000001
aa(lp3855
F2328.4000000000001
aa(lp3856
F2239
aa(lp3857
F2397.3000000000002
aa(lp3858
F1752.7
aa(lp3859
F1117.2
aa(lp3860
F542.29999999999995
aa(lp3861
F289.60000000000002
aa(lp3862
F0
aa(lp3863
F6.5
aa(lp3864
F0
aa(lp3865
F0
aa(lp3866
F0
aa(lp3867
F0
aa(lp3868
F0
aa(lp3869
F0
aa(lp3870
F0
aa(lp3871
F0
aa(lp3872
F0
aa(lp3873
F0
aa(lp3874
F0
aa(lp3875
F95.799999999999997
aa(lp3876
F675.70000000000005
aa(lp3877
F1441.4000000000001
aa(lp3878
F1971.0999999999999
aa(lp3879
F2294
aa(lp3880
F2365.3000000000002
aa(lp3881
F2268.3000000000002
aa(lp3882
F1928.5999999999999
aa(lp3883
F1435.3
aa(lp3884
F875.70000000000005
aa(lp3885
F196
aa(lp3886
F0
aa(lp3887
F8.5999999999999996
aa(lp3888
F0
aa(lp3889
F0
aa(lp3890
F0
aa(lp3891
F0
aa(lp3892
F0
aa(lp3893
F0
aa(lp3894
F0
aa(lp3895
F0
aa(lp3896
F0
aa(lp3897
F0
aa(lp3898
F0
aa(lp3899
F112.09999999999999
aa(lp3900
F433.69999999999999
aa(lp3901
F1343.0999999999999
aa(lp3902
F1888
aa(lp3903
F2251.5
aa(lp3904
F2176.5
aa(lp3905
F2399.6999999999998
aa(lp3906
F1801.0999999999999
aa(lp3907
F1455.4000000000001
aa(lp3908
F802.70000000000005
aa(lp3909
F238.5
aa(lp3910
F0
aa(lp3911
F2.2999999999999998
aa(lp3912
F0
aa(lp3913
F0
aa(lp3914
F0
aa(lp3915
F0
aa(lp3916
F0
aa(lp3917
F0
aa(lp3918
F0
aa(lp3919
F0
aa(lp3920
F0
aa(lp3921
F0
aa(lp3922
F0
aa(lp3923
F116.3
aa(lp3924
F721.60000000000002
aa(lp3925
F1416.5999999999999
aa(lp3926
F1950.7
aa(lp3927
F2282.5999999999999
aa(lp3928
F2406.8000000000002
aa(lp3929
F2311.1999999999998
aa(lp3930
F2014.5
aa(lp3931
F1601
aa(lp3932
F886
aa(lp3933
F164.59999999999999
aa(lp3934
F0
aa(lp3935
F2.3999999999999999
aa(lp3936
F0
aa(lp3937
F0
aa(lp3938
F0
aa(lp3939
F0
aa(lp3940
F0
aa(lp3941
F0
aa(lp3942
F0
aa(lp3943
F0
aa(lp3944
F0
aa(lp3945
F0
aa(lp3946
F0
aa(lp3947
F118.90000000000001
aa(lp3948
F741.60000000000002
aa(lp3949
F1356.2
aa(lp3950
F1909.8
aa(lp3951
F2229.8000000000002
aa(lp3952
F2352.8000000000002
aa(lp3953
F2172.3000000000002
aa(lp3954
F1815.4000000000001
aa(lp3955
F1281.8
aa(lp3956
F672.29999999999995
aa(lp3957
F180.80000000000001
aa(lp3958
F0
aa(lp3959
F3.5
aa(lp3960
F0
aa(lp3961
F0
aa(lp3962
F0
aa(lp3963
F0
aa(lp3964
F0
aa(lp3965
F0
aa(lp3966
F0
aa(lp3967
F0
aa(lp3968
F0
aa(lp3969
F0
aa(lp3970
F0
aa(lp3971
F76.5
aa(lp3972
F579.89999999999998
aa(lp3973
F1269.2
aa(lp3974
F1875
aa(lp3975
F2301.8000000000002
aa(lp3976
F2411.9000000000001
aa(lp3977
F2411.4000000000001
aa(lp3978
F1997
aa(lp3979
F1468.4000000000001
aa(lp3980
F891.60000000000002
aa(lp3981
F206.59999999999999
aa(lp3982
F0
aa(lp3983
F3.6000000000000001
aa(lp3984
F0
aa(lp3985
F0
aa(lp3986
F0
aa(lp3987
F0
aa(lp3988
F0
aa(lp3989
F0
aa(lp3990
F0
aa(lp3991
F0
aa(lp3992
F0
aa(lp3993
F0
aa(lp3994
F0
aa(lp3995
F121.90000000000001
aa(lp3996
F664.60000000000002
aa(lp3997
F1414.2
aa(lp3998
F1983.0999999999999
aa(lp3999
F2323.5999999999999
aa(lp4000
F2416
aa(lp4001
F2361.4000000000001
aa(lp4002
F1990.3
aa(lp4003
F1561.2
aa(lp4004
F922.5
aa(lp4005
F284.19999999999999
aa(lp4006
F2.2000000000000002
aa(lp4007
F4.5
aa(lp4008
F0
aa(lp4009
F0
aa(lp4010
F0
aa(lp4011
F0
aa(lp4012
F0
aa(lp4013
F0
aa(lp4014
F0
aa(lp4015
F0
aa(lp4016
F0
aa(lp4017
F0
aa(lp4018
F0
aa(lp4019
F155.69999999999999
aa(lp4020
F742
aa(lp4021
F1413.0999999999999
aa(lp4022
F1557.5
aa(lp4023
F2409.5999999999999
aa(lp4024
F1915.5
aa(lp4025
F2276.3000000000002
aa(lp4026
F1960.2
aa(lp4027
F1507.0999999999999
aa(lp4028
F688.29999999999995
aa(lp4029
F132.19999999999999
aa(lp4030
F0
aa(lp4031
F2.8999999999999999
aa(lp4032
F0
aa(lp4033
F0
aa(lp4034
F0
aa(lp4035
F0
aa(lp4036
F0
aa(lp4037
F0
aa(lp4038
F0
aa(lp4039
F0
aa(lp4040
F0
aa(lp4041
F0
aa(lp4042
F0
aa(lp4043
F117.40000000000001
aa(lp4044
F686.10000000000002
aa(lp4045
F1322.5
aa(lp4046
F1888.9000000000001
aa(lp4047
F2158.3000000000002
aa(lp4048
F2328.9000000000001
aa(lp4049
F2300.4000000000001
aa(lp4050
F1919.4000000000001
aa(lp4051
F1506.5
aa(lp4052
F882
aa(lp4053
F224.59999999999999
aa(lp4054
F0
aa(lp4055
F2.6000000000000001
aa(lp4056
F0
aa(lp4057
F0
aa(lp4058
F0
aa(lp4059
F0
aa(lp4060
F0
aa(lp4061
F0
aa(lp4062
F0
aa(lp4063
F0
aa(lp4064
F0
aa(lp4065
F0
aa(lp4066
F0
aa(lp4067
F115.90000000000001
aa(lp4068
F689.79999999999995
aa(lp4069
F1371.4000000000001
aa(lp4070
F1859.9000000000001
aa(lp4071
F2214
aa(lp4072
F2326.1999999999998
aa(lp4073
F2339.0999999999999
aa(lp4074
F1873.2
aa(lp4075
F929.29999999999995
aa(lp4076
F448.80000000000001
aa(lp4077
F105.7
aa(lp4078
F0
aa(lp4079
F3.7000000000000002
aa(lp4080
F0
aa(lp4081
F0
aa(lp4082
F0
aa(lp4083
F0
aa(lp4084
F0
aa(lp4085
F0
aa(lp4086
F0
aa(lp4087
F0
aa(lp4088
F0
aa(lp4089
F0
aa(lp4090
F0
aa(lp4091
F131.09999999999999
aa(lp4092
F819.5
aa(lp4093
F1354.3
aa(lp4094
F1847.9000000000001
aa(lp4095
F1930
aa(lp4096
F1865.2
aa(lp4097
F1895.5
aa(lp4098
F1440.4000000000001
aa(lp4099
F906.29999999999995
aa(lp4100
F751.29999999999995
aa(lp4101
F186.90000000000001
aa(lp4102
F2.2000000000000002
aa(lp4103
F6.7999999999999998
aa(lp4104
F0
aa(lp4105
F0
aa(lp4106
F0
aa(lp4107
F0
aa(lp4108
F0
aa(lp4109
F0
aa(lp4110
F0
aa(lp4111
F0
aa(lp4112
F0
aa(lp4113
F0
aa(lp4114
F0
aa(lp4115
F14.5
aa(lp4116
F7.5999999999999996
aa(lp4117
F12.5
aa(lp4118
F133.90000000000001
aa(lp4119
F296.69999999999999
aa(lp4120
F228.5
aa(lp4121
F205.30000000000001
aa(lp4122
F250.5
aa(lp4123
F160.59999999999999
aa(lp4124
F101.8
aa(lp4125
F29.5
aa(lp4126
F0
aa(lp4127
F8.1999999999999993
aa(lp4128
F0
aa(lp4129
F0
aa(lp4130
F0
aa(lp4131
F0
aa(lp4132
F0
aa(lp4133
F0
aa(lp4134
F0
aa(lp4135
F0
aa(lp4136
F0
aa(lp4137
F0
aa(lp4138
F0
aa(lp4139
F0.40000000000000002
aa(lp4140
F3.7999999999999998
aa(lp4141
F96.599999999999994
aa(lp4142
F115.2
aa(lp4143
F202.09999999999999
aa(lp4144
F303.80000000000001
aa(lp4145
F31.300000000000001
aa(lp4146
F95.299999999999997
aa(lp4147
F13
aa(lp4148
F88.599999999999994
aa(lp4149
F26.300000000000001
aa(lp4150
F0
aa(lp4151
F3.2000000000000002
aa(lp4152
F0
aa(lp4153
F0
aa(lp4154
F0
aa(lp4155
F0
aa(lp4156
F0
aa(lp4157
F0
aa(lp4158
F0
aa(lp4159
F0
aa(lp4160
F0
aa(lp4161
F0
aa(lp4162
F0.59999999999999998
aa(lp4163
F43.200000000000003
aa(lp4164
F268.60000000000002
aa(lp4165
F838.79999999999995
aa(lp4166
F1477.3
aa(lp4167
F1685.8
aa(lp4168
F1494.5
aa(lp4169
F1783.3
aa(lp4170
F1690.4000000000001
aa(lp4171
F1095.8
aa(lp4172
F790.60000000000002
aa(lp4173
F138.69999999999999
aa(lp4174
F0
aa(lp4175
F2.8999999999999999
aa(lp4176
F0
aa(lp4177
F0
aa(lp4178
F0
aa(lp4179
F0
aa(lp4180
F0
aa(lp4181
F0
aa(lp4182
F0
aa(lp4183
F0
aa(lp4184
F0
aa(lp4185
F0
aa(lp4186
F0
aa(lp4187
F114.59999999999999
aa(lp4188
F756.70000000000005
aa(lp4189
F1483.0999999999999
aa(lp4190
F2058.9000000000001
aa(lp4191
F2410.8000000000002
aa(lp4192
F2461.3000000000002
aa(lp4193
F2523.9000000000001
aa(lp4194
F2115.9000000000001
aa(lp4195
F1701.4000000000001
aa(lp4196
F1002.5
aa(lp4197
F280.39999999999998
aa(lp4198
F0
aa(lp4199
F6.2999999999999998
aa(lp4200
F0
aa(lp4201
F0
aa(lp4202
F0
aa(lp4203
F0
aa(lp4204
F0
aa(lp4205
F0
aa(lp4206
F0
aa(lp4207
F0
aa(lp4208
F0
aa(lp4209
F0
aa(lp4210
F0
aa(lp4211
F57.899999999999999
aa(lp4212
F795.39999999999998
aa(lp4213
F1497.7
aa(lp4214
F2050
aa(lp4215
F2277.8000000000002
aa(lp4216
F2537.8000000000002
aa(lp4217
F2463
aa(lp4218
F2053.0999999999999
aa(lp4219
F1616.7
aa(lp4220
F965.60000000000002
aa(lp4221
F268.10000000000002
aa(lp4222
F0
aa(lp4223
F5
aa(lp4224
F0
aa(lp4225
F0
aa(lp4226
F0
aa(lp4227
F0
aa(lp4228
F0
aa(lp4229
F0
aa(lp4230
F0
aa(lp4231
F0
aa(lp4232
F0
aa(lp4233
F0
aa(lp4234
F0
aa(lp4235
F116.5
aa(lp4236
F714.60000000000002
aa(lp4237
F1456.7
aa(lp4238
F2023.3
aa(lp4239
F2354
aa(lp4240
F2524.6999999999998
aa(lp4241
F2467.1999999999998
aa(lp4242
F2064.3000000000002
aa(lp4243
F1619.2
aa(lp4244
F960.70000000000005
aa(lp4245
F276.89999999999998
aa(lp4246
F0
aa(lp4247
F4.2000000000000002
aa(lp4248
F0
aa(lp4249
F0
aa(lp4250
F0
aa(lp4251
F0
aa(lp4252
F0
aa(lp4253
F0
aa(lp4254
F0
aa(lp4255
F0
aa(lp4256
F0
aa(lp4257
F0
aa(lp4258
F0
aa(lp4259
F103.7
aa(lp4260
F808.10000000000002
aa(lp4261
F1230.5999999999999
aa(lp4262
F1211.2
aa(lp4263
F2310.1999999999998
aa(lp4264
F2475
aa(lp4265
F2410.5
aa(lp4266
F2016.5
aa(lp4267
F1579.9000000000001
aa(lp4268
F940.29999999999995
aa(lp4269
F266.10000000000002
aa(lp4270
F0
aa(lp4271
F7.5
aa(lp4272
F0
aa(lp4273
F0
aa(lp4274
F0
aa(lp4275
F0
aa(lp4276
F0
aa(lp4277
F0
aa(lp4278
F0
aa(lp4279
F0
aa(lp4280
F0
aa(lp4281
F0
aa(lp4282
F0
aa(lp4283
F123.7
aa(lp4284
F703
aa(lp4285
F1442.5
aa(lp4286
F1950
aa(lp4287
F2137.5999999999999
aa(lp4288
F2128
aa(lp4289
F2069.6999999999998
aa(lp4290
F1709.9000000000001
aa(lp4291
F1128.3
aa(lp4292
F634.79999999999995
aa(lp4293
F199.69999999999999
aa(lp4294
F0
aa(lp4295
F4.7000000000000002
aa(lp4296
F0
aa(lp4297
F0
aa(lp4298
F0
aa(lp4299
F0
aa(lp4300
F0
aa(lp4301
F0
aa(lp4302
F0
aa(lp4303
F0
aa(lp4304
F0
aa(lp4305
F0
aa(lp4306
F0
aa(lp4307
F93.900000000000006
aa(lp4308
F687.39999999999998
aa(lp4309
F1389.9000000000001
aa(lp4310
F1951.5
aa(lp4311
F2291.8000000000002
aa(lp4312
F2442.4000000000001
aa(lp4313
F2095.1999999999998
aa(lp4314
F1946.2
aa(lp4315
F1490.8
aa(lp4316
F815.5
aa(lp4317
F285
aa(lp4318
F0.59999999999999998
aa(lp4319
F4.7999999999999998
aa(lp4320
F0
aa(lp4321
F0
aa(lp4322
F0
aa(lp4323
F0
aa(lp4324
F0
aa(lp4325
F0
aa(lp4326
F0
aa(lp4327
F0
aa(lp4328
F0
aa(lp4329
F0
aa(lp4330
F0
aa(lp4331
F96.900000000000006
aa(lp4332
F692.29999999999995
aa(lp4333
F1385.4000000000001
aa(lp4334
F1956.2
aa(lp4335
F2306.4000000000001
aa(lp4336
F2492.4000000000001
aa(lp4337
F2385.6999999999998
aa(lp4338
F2043.4000000000001
aa(lp4339
F1506.7
aa(lp4340
F980.89999999999998
aa(lp4341
F285.60000000000002
aa(lp4342
F0
aa(lp4343
F4.5
aa(lp4344
F0
aa(lp4345
F0
aa(lp4346
F0
aa(lp4347
F0
aa(lp4348
F0
aa(lp4349
F0
aa(lp4350
F0
aa(lp4351
F0
aa(lp4352
F0
aa(lp4353
F0
aa(lp4354
F0
aa(lp4355
F100.90000000000001
aa(lp4356
F700.79999999999995
aa(lp4357
F1410.2
aa(lp4358
F1977.2
aa(lp4359
F2329.0999999999999
aa(lp4360
F2507.4000000000001
aa(lp4361
F2457.4000000000001
aa(lp4362
F2078.1999999999998
aa(lp4363
F1655.2
aa(lp4364
F991.29999999999995
aa(lp4365
F284
aa(lp4366
F0.29999999999999999
aa(lp4367
F3.7999999999999998
aa(lp4368
F0
aa(lp4369
F0
aa(lp4370
F0
aa(lp4371
F0
aa(lp4372
F0
aa(lp4373
F0
aa(lp4374
F0
aa(lp4375
F0
aa(lp4376
F0
aa(lp4377
F0
aa(lp4378
F0
aa(lp4379
F99.400000000000006
aa(lp4380
F710.70000000000005
aa(lp4381
F1421.0999999999999
aa(lp4382
F1972.7
aa(lp4383
F2313.6999999999998
aa(lp4384
F2490.1999999999998
aa(lp4385
F2431.9000000000001
aa(lp4386
F2057.5999999999999
aa(lp4387
F1637.7
aa(lp4388
F987.79999999999995
aa(lp4389
F290.60000000000002
aa(lp4390
F0.5
aa(lp4391
F3.8999999999999999
aa(lp4392
F0
aa(lp4393
F0
aa(lp4394
F0
aa(lp4395
F0
aa(lp4396
F0
aa(lp4397
F0
aa(lp4398
F0
aa(lp4399
F0
aa(lp4400
F0
aa(lp4401
F0
aa(lp4402
F0
aa(lp4403
F99.099999999999994
aa(lp4404
F716.79999999999995
aa(lp4405
F1418.4000000000001
aa(lp4406
F1990.3
aa(lp4407
F2366.5
aa(lp4408
F2527.6999999999998
aa(lp4409
F2475.1999999999998
aa(lp4410
F2086.4000000000001
aa(lp4411
F1658.9000000000001
aa(lp4412
F1003.6
aa(lp4413
F291.89999999999998
aa(lp4414
F0.59999999999999998
aa(lp4415
F3.3999999999999999
aa(lp4416
F0
aa(lp4417
F0
aa(lp4418
F0
aa(lp4419
F0
aa(lp4420
F0
aa(lp4421
F0
aa(lp4422
F0
aa(lp4423
F0
aa(lp4424
F0
aa(lp4425
F0
aa(lp4426
F0
aa(lp4427
F93.900000000000006
aa(lp4428
F690.60000000000002
aa(lp4429
F1439.8
aa(lp4430
F1795.5999999999999
aa(lp4431
F2396.1999999999998
aa(lp4432
F2343.0999999999999
aa(lp4433
F1817.5
aa(lp4434
F1566.5
aa(lp4435
F1306.3
aa(lp4436
F963.70000000000005
aa(lp4437
F269.5
aa(lp4438
F0
aa(lp4439
F4.2000000000000002
aa(lp4440
F0
aa(lp4441
F0
aa(lp4442
F0
aa(lp4443
F0
aa(lp4444
F0
aa(lp4445
F0
aa(lp4446
F0
aa(lp4447
F0
aa(lp4448
F0
aa(lp4449
F0
aa(lp4450
F0
aa(lp4451
F59.700000000000003
aa(lp4452
F624.79999999999995
aa(lp4453
F1393.5
aa(lp4454
F1965.7
aa(lp4455
F2360.4000000000001
aa(lp4456
F2532.0999999999999
aa(lp4457
F2478.5
aa(lp4458
F2085.5999999999999
aa(lp4459
F1672.5
aa(lp4460
F1020.3
aa(lp4461
F308.80000000000001
aa(lp4462
F0.90000000000000002
aa(lp4463
F2.8999999999999999
aa(lp4464
F0
aa(lp4465
F0
aa(lp4466
F0
aa(lp4467
F0
aa(lp4468
F0
aa(lp4469
F0
aa(lp4470
F0
aa(lp4471
F0
aa(lp4472
F0
aa(lp4473
F0
aa(lp4474
F0
aa(lp4475
F96.599999999999994
aa(lp4476
F686.5
aa(lp4477
F1383.5999999999999
aa(lp4478
F1951.3
aa(lp4479
F2328.8000000000002
aa(lp4480
F2500
aa(lp4481
F2443
aa(lp4482
F2022.2
aa(lp4483
F1651.5999999999999
aa(lp4484
F1001.8
aa(lp4485
F288.69999999999999
aa(lp4486
F0.80000000000000004
aa(lp4487
F4.5
aa(lp4488
F0
aa(lp4489
F0
aa(lp4490
F0
aa(lp4491
F0
aa(lp4492
F0
aa(lp4493
F0
aa(lp4494
F0
aa(lp4495
F0
aa(lp4496
F0
aa(lp4497
F0
aa(lp4498
F0
aa(lp4499
F96.599999999999994
aa(lp4500
F817.20000000000005
aa(lp4501
F1325.0999999999999
aa(lp4502
F1652.3
aa(lp4503
F1515.7
aa(lp4504
F2200.5
aa(lp4505
F2021.0999999999999
aa(lp4506
F1361.9000000000001
aa(lp4507
F1229.2
aa(lp4508
F757
aa(lp4509
F144.5
aa(lp4510
F1
aa(lp4511
F3.8999999999999999
aa(lp4512
F0
aa(lp4513
F0
aa(lp4514
F0
aa(lp4515
F0
aa(lp4516
F0
aa(lp4517
F0
aa(lp4518
F0
aa(lp4519
F0
aa(lp4520
F0
aa(lp4521
F0
aa(lp4522
F0
aa(lp4523
F50.299999999999997
aa(lp4524
F271.89999999999998
aa(lp4525
F235.5
aa(lp4526
F157.90000000000001
aa(lp4527
F425.5
aa(lp4528
F711.89999999999998
aa(lp4529
F287.69999999999999
aa(lp4530
F183.40000000000001
aa(lp4531
F194.40000000000001
aa(lp4532
F83.900000000000006
aa(lp4533
F25.199999999999999
aa(lp4534
F0
aa(lp4535
F4.7000000000000002
aa(lp4536
F0
aa(lp4537
F0
aa(lp4538
F0
aa(lp4539
F0
aa(lp4540
F0
aa(lp4541
F0
aa(lp4542
F0
aa(lp4543
F0
aa(lp4544
F0
aa(lp4545
F0
aa(lp4546
F0
aa(lp4547
F29
aa(lp4548
F327
aa(lp4549
F815.39999999999998
aa(lp4550
F1985.0999999999999
aa(lp4551
F2508.4000000000001
aa(lp4552
F2670.5
aa(lp4553
F2610.8000000000002
aa(lp4554
F2164.1999999999998
aa(lp4555
F1777.5
aa(lp4556
F1102.2
aa(lp4557
F343.30000000000001
aa(lp4558
F1.6000000000000001
aa(lp4559
F6.2000000000000002
aa(lp4560
F0
aa(lp4561
F0
aa(lp4562
F0
aa(lp4563
F0
aa(lp4564
F0
aa(lp4565
F0
aa(lp4566
F0
aa(lp4567
F0
aa(lp4568
F0
aa(lp4569
F0
aa(lp4570
F0
aa(lp4571
F61.399999999999999
aa(lp4572
F735.10000000000002
aa(lp4573
F1457.5
aa(lp4574
F1952.8
aa(lp4575
F2298
aa(lp4576
F2474.5
aa(lp4577
F2416.3000000000002
aa(lp4578
F2014.5
aa(lp4579
F1638.3
aa(lp4580
F1002.7
aa(lp4581
F302.60000000000002
aa(lp4582
F2.2000000000000002
aa(lp4583
F9
aa(lp4584
F0
aa(lp4585
F0
aa(lp4586
F0
aa(lp4587
F0
aa(lp4588
F0
aa(lp4589
F0
aa(lp4590
F0
aa(lp4591
F0
aa(lp4592
F0
aa(lp4593
F0
aa(lp4594
F0
aa(lp4595
F97.700000000000003
aa(lp4596
F692.10000000000002
aa(lp4597
F1390.8
aa(lp4598
F1959.9000000000001
aa(lp4599
F2334.6999999999998
aa(lp4600
F2512.0999999999999
aa(lp4601
F2465.0999999999999
aa(lp4602
F2051.3000000000002
aa(lp4603
F1662.3
aa(lp4604
F1012.1
aa(lp4605
F309
aa(lp4606
F3.2000000000000002
aa(lp4607
F7
aa(lp4608
F0
aa(lp4609
F0
aa(lp4610
F0
aa(lp4611
F0
aa(lp4612
F0
aa(lp4613
F0
aa(lp4614
F0
aa(lp4615
F0
aa(lp4616
F0
aa(lp4617
F0
aa(lp4618
F0
aa(lp4619
F102.59999999999999
aa(lp4620
F687.70000000000005
aa(lp4621
F1333.9000000000001
aa(lp4622
F1838.4000000000001
aa(lp4623
F2345.0999999999999
aa(lp4624
F2517.3000000000002
aa(lp4625
F1854.4000000000001
aa(lp4626
F1784.4000000000001
aa(lp4627
F1089.4000000000001
aa(lp4628
F969
aa(lp4629
F187.59999999999999
aa(lp4630
F1
aa(lp4631
F1.2
aa(lp4632
F0
aa(lp4633
F0
aa(lp4634
F0
aa(lp4635
F0
aa(lp4636
F0
aa(lp4637
F0
aa(lp4638
F0
aa(lp4639
F0
aa(lp4640
F0
aa(lp4641
F0
aa(lp4642
F0
aa(lp4643
F36
aa(lp4644
F511.89999999999998
aa(lp4645
F1269.0999999999999
aa(lp4646
F1398.9000000000001
aa(lp4647
F1948
aa(lp4648
F2492.3000000000002
aa(lp4649
F1843.7
aa(lp4650
F1421
aa(lp4651
F933.10000000000002
aa(lp4652
F441.10000000000002
aa(lp4653
F142.69999999999999
aa(lp4654
F0
aa(lp4655
F2.7999999999999998
aa(lp4656
F0
aa(lp4657
F0
aa(lp4658
F0
aa(lp4659
F0
aa(lp4660
F0
aa(lp4661
F0
aa(lp4662
F0
aa(lp4663
F0
aa(lp4664
F0
aa(lp4665
F0
aa(lp4666
F0
aa(lp4667
F109.8
aa(lp4668
F769.5
aa(lp4669
F1515.4000000000001
aa(lp4670
F2106.0999999999999
aa(lp4671
F2489.5
aa(lp4672
F2654.4000000000001
aa(lp4673
F2583.5999999999999
aa(lp4674
F2188.9000000000001
aa(lp4675
F1784.5999999999999
aa(lp4676
F1113.2
aa(lp4677
F348.60000000000002
aa(lp4678
F0
aa(lp4679
F5.2999999999999998
aa(lp4680
F0
aa(lp4681
F0
aa(lp4682
F0
aa(lp4683
F0
aa(lp4684
F0
aa(lp4685
F0
aa(lp4686
F0
aa(lp4687
F0
aa(lp4688
F0
aa(lp4689
F0
aa(lp4690
F0
aa(lp4691
F132.90000000000001
aa(lp4692
F753.10000000000002
aa(lp4693
F1430.8
aa(lp4694
F2099.5999999999999
aa(lp4695
F2463.9000000000001
aa(lp4696
F2648.0999999999999
aa(lp4697
F2579.9000000000001
aa(lp4698
F2152.9000000000001
aa(lp4699
F1768.5
aa(lp4700
F1092
aa(lp4701
F343.60000000000002
aa(lp4702
F3.2000000000000002
aa(lp4703
F5
aa(lp4704
F0
aa(lp4705
F0
aa(lp4706
F0
aa(lp4707
F0
aa(lp4708
F0
aa(lp4709
F0
aa(lp4710
F0
aa(lp4711
F0
aa(lp4712
F0
aa(lp4713
F0
aa(lp4714
F0
aa(lp4715
F103.40000000000001
aa(lp4716
F726.60000000000002
aa(lp4717
F1445.2
aa(lp4718
F2018.8
aa(lp4719
F2402.4000000000001
aa(lp4720
F2565.3000000000002
aa(lp4721
F2493.9000000000001
aa(lp4722
F2079.5
aa(lp4723
F1699.7
aa(lp4724
F1057.4000000000001
aa(lp4725
F336.30000000000001
aa(lp4726
F3.7000000000000002
aa(lp4727
F6.5999999999999996
aa(lp4728
F0
aa(lp4729
F0
aa(lp4730
F0
aa(lp4731
F0
aa(lp4732
F0
aa(lp4733
F0
aa(lp4734
F0
aa(lp4735
F0
aa(lp4736
F0
aa(lp4737
F0
aa(lp4738
F0
aa(lp4739
F103.90000000000001
aa(lp4740
F751.89999999999998
aa(lp4741
F1482.2
aa(lp4742
F1530.4000000000001
aa(lp4743
F2085.0999999999999
aa(lp4744
F2229.9000000000001
aa(lp4745
F2503.3000000000002
aa(lp4746
F1983.2
aa(lp4747
F905.5
aa(lp4748
F440.89999999999998
aa(lp4749
F157.90000000000001
aa(lp4750
F3.6000000000000001
aa(lp4751
F4.2999999999999998
aa(lp4752
F0
aa(lp4753
F0
aa(lp4754
F0
aa(lp4755
F0
aa(lp4756
F0
aa(lp4757
F0
aa(lp4758
F0
aa(lp4759
F0
aa(lp4760
F0
aa(lp4761
F0
aa(lp4762
F0
aa(lp4763
F35.700000000000003
aa(lp4764
F226.19999999999999
aa(lp4765
F448.30000000000001
aa(lp4766
F1196.5999999999999
aa(lp4767
F1442.3
aa(lp4768
F2092.1999999999998
aa(lp4769
F2163
aa(lp4770
F1775.2
aa(lp4771
F1902.4000000000001
aa(lp4772
F863.20000000000005
aa(lp4773
F399.19999999999999
aa(lp4774
F4.2000000000000002
aa(lp4775
F11
aa(lp4776
F0
aa(lp4777
F0
aa(lp4778
F0
aa(lp4779
F0
aa(lp4780
F0
aa(lp4781
F0
aa(lp4782
F0
aa(lp4783
F0
aa(lp4784
F0
aa(lp4785
F0
aa(lp4786
F0
aa(lp4787
F111.8
aa(lp4788
F769.70000000000005
aa(lp4789
F1511.5
aa(lp4790
F2094.3000000000002
aa(lp4791
F2478
aa(lp4792
F2653.3000000000002
aa(lp4793
F2615.3000000000002
aa(lp4794
F2191.9000000000001
aa(lp4795
F1798.2
aa(lp4796
F1137.9000000000001
aa(lp4797
F380.39999999999998
aa(lp4798
F3
aa(lp4799
F4.5999999999999996
aa(lp4800
F0
aa(lp4801
F0
aa(lp4802
F0
aa(lp4803
F0
aa(lp4804
F0
aa(lp4805
F0
aa(lp4806
F0
aa(lp4807
F0
aa(lp4808
F0
aa(lp4809
F0
aa(lp4810
F0
aa(lp4811
F120.2
aa(lp4812
F792.5
aa(lp4813
F1539.9000000000001
aa(lp4814
F2130.5
aa(lp4815
F2504.1999999999998
aa(lp4816
F2666.5
aa(lp4817
F2618.9000000000001
aa(lp4818
F2213.9000000000001
aa(lp4819
F1839.2
aa(lp4820
F1158.5
aa(lp4821
F397.30000000000001
aa(lp4822
F4.0999999999999996
aa(lp4823
F4.2999999999999998
aa(lp4824
F0
aa(lp4825
F0
aa(lp4826
F0
aa(lp4827
F0
aa(lp4828
F0
aa(lp4829
F0
aa(lp4830
F0
aa(lp4831
F0
aa(lp4832
F0
aa(lp4833
F0
aa(lp4834
F0
aa(lp4835
F125.7
aa(lp4836
F812.60000000000002
aa(lp4837
F1571
aa(lp4838
F2178
aa(lp4839
F2584.8000000000002
aa(lp4840
F2754.8000000000002
aa(lp4841
F2700.5999999999999
aa(lp4842
F2250.6999999999998
aa(lp4843
F1872.9000000000001
aa(lp4844
F1175.7
aa(lp4845
F397.39999999999998
aa(lp4846
F4.7000000000000002
aa(lp4847
F4.2000000000000002
aa(lp4848
F0
aa(lp4849
F0
aa(lp4850
F0
aa(lp4851
F0
aa(lp4852
F0
aa(lp4853
F0
aa(lp4854
F0
aa(lp4855
F0
aa(lp4856
F0
aa(lp4857
F0
aa(lp4858
F0
aa(lp4859
F116.2
aa(lp4860
F748.89999999999998
aa(lp4861
F1477.5999999999999
aa(lp4862
F2055.4000000000001
aa(lp4863
F2448
aa(lp4864
F2616.5
aa(lp4865
F2552.3000000000002
aa(lp4866
F2069.6999999999998
aa(lp4867
F1777.5
aa(lp4868
F1119
aa(lp4869
F377.5
aa(lp4870
F6.2999999999999998
aa(lp4871
F2.6000000000000001
aa(lp4872
F0
aa(lp4873
F0
aa(lp4874
F0
aa(lp4875
F0
aa(lp4876
F0
aa(lp4877
F0
aa(lp4878
F0
aa(lp4879
F0
aa(lp4880
F0
aa(lp4881
F0
aa(lp4882
F0
aa(lp4883
F109.8
aa(lp4884
F711.70000000000005
aa(lp4885
F1467.7
aa(lp4886
F1978.8
aa(lp4887
F2360.8000000000002
aa(lp4888
F2561.9000000000001
aa(lp4889
F2370.8000000000002
aa(lp4890
F1779.5
aa(lp4891
F1553.0999999999999
aa(lp4892
F1101
aa(lp4893
F296.39999999999998
aa(lp4894
F4.9000000000000004
aa(lp4895
F3.8999999999999999
aa(lp4896
F0
aa(lp4897
F0
aa(lp4898
F0
aa(lp4899
F0
aa(lp4900
F0
aa(lp4901
F0
aa(lp4902
F0
aa(lp4903
F0
aa(lp4904
F0
aa(lp4905
F0
aa(lp4906
F0
aa(lp4907
F120.5
aa(lp4908
F755.10000000000002
aa(lp4909
F1431.2
aa(lp4910
F2050
aa(lp4911
F2405.0999999999999
aa(lp4912
F2679.3000000000002
aa(lp4913
F2532.5999999999999
aa(lp4914
F2072
aa(lp4915
F1768.0999999999999
aa(lp4916
F1149
aa(lp4917
F409.69999999999999
aa(lp4918
F6
aa(lp4919
F2.6000000000000001
aa(lp4920
F0
aa(lp4921
F0
aa(lp4922
F0
aa(lp4923
F0
aa(lp4924
F0
aa(lp4925
F0
aa(lp4926
F0
aa(lp4927
F0
aa(lp4928
F0
aa(lp4929
F0
aa(lp4930
F0
aa(lp4931
F108.3
aa(lp4932
F750.39999999999998
aa(lp4933
F1469.7
aa(lp4934
F2047.5999999999999
aa(lp4935
F2425.3000000000002
aa(lp4936
F2592.0999999999999
aa(lp4937
F2533
aa(lp4938
F2055.8000000000002
aa(lp4939
F1472.5
aa(lp4940
F391.19999999999999
aa(lp4941
F176.69999999999999
aa(lp4942
F8.9000000000000004
aa(lp4943
F3.1000000000000001
aa(lp4944
F0
aa(lp4945
F0
aa(lp4946
F0
aa(lp4947
F0
aa(lp4948
F0
aa(lp4949
F0
aa(lp4950
F0
aa(lp4951
F0
aa(lp4952
F0
aa(lp4953
F0
aa(lp4954
F0
aa(lp4955
F112
aa(lp4956
F622.20000000000005
aa(lp4957
F1107.5
aa(lp4958
F1582.5999999999999
aa(lp4959
F2114.5
aa(lp4960
F2459.5999999999999
aa(lp4961
F2464.9000000000001
aa(lp4962
F1697.5
aa(lp4963
F745.29999999999995
aa(lp4964
F843.29999999999995
aa(lp4965
F339.80000000000001
aa(lp4966
F6.7000000000000002
aa(lp4967
F3.1000000000000001
aa(lp4968
F0
aa(lp4969
F0
aa(lp4970
F0
aa(lp4971
F0
aa(lp4972
F0
aa(lp4973
F0
aa(lp4974
F0
aa(lp4975
F0
aa(lp4976
F0
aa(lp4977
F0
aa(lp4978
F0
aa(lp4979
F115.5
aa(lp4980
F723.20000000000005
aa(lp4981
F1428.5999999999999
aa(lp4982
F1992.5999999999999
aa(lp4983
F2371.6999999999998
aa(lp4984
F2543.8000000000002
aa(lp4985
F2510.4000000000001
aa(lp4986
F2087
aa(lp4987
F1720.5
aa(lp4988
F1104.9000000000001
aa(lp4989
F380.89999999999998
aa(lp4990
F7.9000000000000004
aa(lp4991
F2.2000000000000002
aa(lp4992
F0
aa(lp4993
F0
aa(lp4994
F0
aa(lp4995
F0
aa(lp4996
F0
aa(lp4997
F0
aa(lp4998
F0
aa(lp4999
F0
aa(lp5000
F0
aa(lp5001
F0
aa(lp5002
F0
aa(lp5003
F111.40000000000001
aa(lp5004
F718
aa(lp5005
F1422.4000000000001
aa(lp5006
F1994.4000000000001
aa(lp5007
F2368.8000000000002
aa(lp5008
F2452.8000000000002
aa(lp5009
F1791.2
aa(lp5010
F2205.3000000000002
aa(lp5011
F1376.7
aa(lp5012
F917.20000000000005
aa(lp5013
F380.89999999999998
aa(lp5014
F7.7000000000000002
aa(lp5015
F2.7999999999999998
aa(lp5016
F0
aa(lp5017
F0
aa(lp5018
F0
aa(lp5019
F0
aa(lp5020
F0
aa(lp5021
F0
aa(lp5022
F0
aa(lp5023
F0
aa(lp5024
F0
aa(lp5025
F0
aa(lp5026
F0
aa(lp5027
F126.3
aa(lp5028
F755.29999999999995
aa(lp5029
F1393.5
aa(lp5030
F1871.3
aa(lp5031
F2330.1999999999998
aa(lp5032
F2661.9000000000001
aa(lp5033
F2580.1999999999998
aa(lp5034
F2240.4000000000001
aa(lp5035
F1711.5
aa(lp5036
F1100.0999999999999
aa(lp5037
F402
aa(lp5038
F10.9
aa(lp5039
F3
aa(lp5040
F0
aa(lp5041
F0
aa(lp5042
F0
aa(lp5043
F0
aa(lp5044
F0
aa(lp5045
F0
aa(lp5046
F0
aa(lp5047
F0
aa(lp5048
F0
aa(lp5049
F0
aa(lp5050
F0
aa(lp5051
F124.09999999999999
aa(lp5052
F787
aa(lp5053
F1516.7
aa(lp5054
F2122
aa(lp5055
F2505.5
aa(lp5056
F2711.6999999999998
aa(lp5057
F2667.5999999999999
aa(lp5058
F2307.6999999999998
aa(lp5059
F1842.8
aa(lp5060
F1157.0999999999999
aa(lp5061
F411.80000000000001
aa(lp5062
F6.0999999999999996
aa(lp5063
F3.2999999999999998
aa(lp5064
F0
aa(lp5065
F0
aa(lp5066
F0
aa(lp5067
F0
aa(lp5068
F0
aa(lp5069
F0
aa(lp5070
F0
aa(lp5071
F0
aa(lp5072
F0
aa(lp5073
F0
aa(lp5074
F0
aa(lp5075
F94.200000000000003
aa(lp5076
F573.60000000000002
aa(lp5077
F648.60000000000002
aa(lp5078
F1071.2
aa(lp5079
F1963.5
aa(lp5080
F2199.5999999999999
aa(lp5081
F1687.4000000000001
aa(lp5082
F1782.7
aa(lp5083
F1263.5999999999999
aa(lp5084
F816.5
aa(lp5085
F207.5
aa(lp5086
F9
aa(lp5087
F2.1000000000000001
aa(lp5088
F0
aa(lp5089
F0
aa(lp5090
F0
aa(lp5091
F0
aa(lp5092
F0
aa(lp5093
F0
aa(lp5094
F0
aa(lp5095
F0
aa(lp5096
F0
aa(lp5097
F0
aa(lp5098
F0
aa(lp5099
F153.5
aa(lp5100
F793.29999999999995
aa(lp5101
F1443.7
aa(lp5102
F2061.8000000000002
aa(lp5103
F2507.1999999999998
aa(lp5104
F2688.3000000000002
aa(lp5105
F2635.3000000000002
aa(lp5106
F2289.4000000000001
aa(lp5107
F1831.7
aa(lp5108
F1164.9000000000001
aa(lp5109
F407
aa(lp5110
F17.300000000000001
aa(lp5111
F3
aa(lp5112
F0
aa(lp5113
F0
aa(lp5114
F0
aa(lp5115
F0
aa(lp5116
F0
aa(lp5117
F0
aa(lp5118
F0
aa(lp5119
F0
aa(lp5120
F0
aa(lp5121
F0
aa(lp5122
F0
aa(lp5123
F146.30000000000001
aa(lp5124
F804.5
aa(lp5125
F1554.8
aa(lp5126
F2153.4000000000001
aa(lp5127
F2552.3000000000002
aa(lp5128
F2727.8000000000002
aa(lp5129
F2664.3000000000002
aa(lp5130
F2321.8000000000002
aa(lp5131
F1859.3
aa(lp5132
F1191.5999999999999
aa(lp5133
F436.39999999999998
aa(lp5134
F9.4000000000000004
aa(lp5135
F6.7000000000000002
aa(lp5136
F0
aa(lp5137
F0
aa(lp5138
F0
aa(lp5139
F0
aa(lp5140
F0
aa(lp5141
F0
aa(lp5142
F0
aa(lp5143
F0
aa(lp5144
F0
aa(lp5145
F0
aa(lp5146
F0
aa(lp5147
F156.19999999999999
aa(lp5148
F835.39999999999998
aa(lp5149
F1584.7
aa(lp5150
F2180.3000000000002
aa(lp5151
F2580.5999999999999
aa(lp5152
F2755
aa(lp5153
F2683.6999999999998
aa(lp5154
F2350.5999999999999
aa(lp5155
F1878.9000000000001
aa(lp5156
F1199
aa(lp5157
F442.39999999999998
aa(lp5158
F11.1
aa(lp5159
F5.2000000000000002
aa(lp5160
F0
aa(lp5161
F0
aa(lp5162
F0
aa(lp5163
F0
aa(lp5164
F0
aa(lp5165
F0
aa(lp5166
F0
aa(lp5167
F0
aa(lp5168
F0
aa(lp5169
F0
aa(lp5170
F0
aa(lp5171
F162
aa(lp5172
F840.20000000000005
aa(lp5173
F1595.2
aa(lp5174
F2188.1999999999998
aa(lp5175
F2573.4000000000001
aa(lp5176
F2756.0999999999999
aa(lp5177
F2677.9000000000001
aa(lp5178
F2352.9000000000001
aa(lp5179
F1886.2
aa(lp5180
F1219.3
aa(lp5181
F454.60000000000002
aa(lp5182
F9.0999999999999996
aa(lp5183
F6
aa(lp5184
F0
aa(lp5185
F0
aa(lp5186
F0
aa(lp5187
F0
aa(lp5188
F0
aa(lp5189
F0
aa(lp5190
F0
aa(lp5191
F0
aa(lp5192
F0
aa(lp5193
F0
aa(lp5194
F0
aa(lp5195
F166.80000000000001
aa(lp5196
F839.10000000000002
aa(lp5197
F1575.3
aa(lp5198
F2156.5
aa(lp5199
F2544.6999999999998
aa(lp5200
F2736.3000000000002
aa(lp5201
F2652
aa(lp5202
F2332
aa(lp5203
F1868.4000000000001
aa(lp5204
F1182.5999999999999
aa(lp5205
F418.30000000000001
aa(lp5206
F11.1
aa(lp5207
F4.5999999999999996
aa(lp5208
F0
aa(lp5209
F0
aa(lp5210
F0
aa(lp5211
F0
aa(lp5212
F0
aa(lp5213
F0
aa(lp5214
F0
aa(lp5215
F0
aa(lp5216
F0
aa(lp5217
F0
aa(lp5218
F0
aa(lp5219
F161.19999999999999
aa(lp5220
F783.70000000000005
aa(lp5221
F1569.5
aa(lp5222
F2144.3000000000002
aa(lp5223
F2532.0999999999999
aa(lp5224
F2728.4000000000001
aa(lp5225
F2632.5999999999999
aa(lp5226
F2315.8000000000002
aa(lp5227
F1837.9000000000001
aa(lp5228
F1089.7
aa(lp5229
F441.39999999999998
aa(lp5230
F15.199999999999999
aa(lp5231
F3.2999999999999998
aa(lp5232
F0
aa(lp5233
F0
aa(lp5234
F0
aa(lp5235
F0
aa(lp5236
F0
aa(lp5237
F0
aa(lp5238
F0
aa(lp5239
F0
aa(lp5240
F0
aa(lp5241
F0
aa(lp5242
F0
aa(lp5243
F165.19999999999999
aa(lp5244
F818.89999999999998
aa(lp5245
F1549.4000000000001
aa(lp5246
F2143.5999999999999
aa(lp5247
F2553.8000000000002
aa(lp5248
F2745.0999999999999
aa(lp5249
F2669.1999999999998
aa(lp5250
F2354.1999999999998
aa(lp5251
F1877.7
aa(lp5252
F1202.7
aa(lp5253
F445.19999999999999
aa(lp5254
F12.1
aa(lp5255
F4.7999999999999998
aa(lp5256
F0
aa(lp5257
F0
aa(lp5258
F0
aa(lp5259
F0
aa(lp5260
F0
aa(lp5261
F0
aa(lp5262
F0
aa(lp5263
F0
aa(lp5264
F0
aa(lp5265
F0
aa(lp5266
F0
aa(lp5267
F172.59999999999999
aa(lp5268
F865.70000000000005
aa(lp5269
F1623.3
aa(lp5270
F2210
aa(lp5271
F2585.5
aa(lp5272
F2752.6999999999998
aa(lp5273
F2683
aa(lp5274
F2359.5999999999999
aa(lp5275
F1880.8
aa(lp5276
F1202
aa(lp5277
F443.80000000000001
aa(lp5278
F12.5
aa(lp5279
F4.0999999999999996
aa(lp5280
F0
aa(lp5281
F0
aa(lp5282
F0
aa(lp5283
F0
aa(lp5284
F0
aa(lp5285
F0
aa(lp5286
F0
aa(lp5287
F0
aa(lp5288
F0
aa(lp5289
F0
aa(lp5290
F0
aa(lp5291
F170.40000000000001
aa(lp5292
F852.89999999999998
aa(lp5293
F1604.5
aa(lp5294
F2187.1999999999998
aa(lp5295
F2562.5999999999999
aa(lp5296
F2757.6999999999998
aa(lp5297
F2683.9000000000001
aa(lp5298
F2361.9000000000001
aa(lp5299
F1862.7
aa(lp5300
F1193
aa(lp5301
F437.30000000000001
aa(lp5302
F13.4
aa(lp5303
F5.5999999999999996
aa(lp5304
F0
aa(lp5305
F0
aa(lp5306
F0
aa(lp5307
F0
aa(lp5308
F0
aa(lp5309
F0
aa(lp5310
F0
aa(lp5311
F0
aa(lp5312
F0
aa(lp5313
F0
aa(lp5314
F0
aa(lp5315
F171.09999999999999
aa(lp5316
F824
aa(lp5317
F1555.5
aa(lp5318
F2153.8000000000002
aa(lp5319
F2547.5
aa(lp5320
F2732.3000000000002
aa(lp5321
F2402.4000000000001
aa(lp5322
F2384.5
aa(lp5323
F1438.2
aa(lp5324
F862.39999999999998
aa(lp5325
F312.80000000000001
aa(lp5326
F23.199999999999999
aa(lp5327
F3.7999999999999998
aa(lp5328
F0
aa(lp5329
F0
aa(lp5330
F0
aa(lp5331
F0
aa(lp5332
F0
aa(lp5333
F0
aa(lp5334
F0
aa(lp5335
F0
aa(lp5336
F0
aa(lp5337
F0
aa(lp5338
F0
aa(lp5339
F213.59999999999999
aa(lp5340
F741.29999999999995
aa(lp5341
F1552.5
aa(lp5342
F2003.5999999999999
aa(lp5343
F2596.0999999999999
aa(lp5344
F2780.4000000000001
aa(lp5345
F2712.8000000000002
aa(lp5346
F2385.4000000000001
aa(lp5347
F1874.3
aa(lp5348
F1192
aa(lp5349
F480.5
aa(lp5350
F23
aa(lp5351
F3.8999999999999999
aa(lp5352
F0
aa(lp5353
F0
aa(lp5354
F0
aa(lp5355
F0
aa(lp5356
F0
aa(lp5357
F0
aa(lp5358
F0
aa(lp5359
F0
aa(lp5360
F0
aa(lp5361
F0
aa(lp5362
F0
aa(lp5363
F189.09999999999999
aa(lp5364
F880.60000000000002
aa(lp5365
F1640.5999999999999
aa(lp5366
F2228.0999999999999
aa(lp5367
F2613.9000000000001
aa(lp5368
F2802.8000000000002
aa(lp5369
F2722.1999999999998
aa(lp5370
F2425.9000000000001
aa(lp5371
F1908.0999999999999
aa(lp5372
F1225.5999999999999
aa(lp5373
F465.30000000000001
aa(lp5374
F18.399999999999999
aa(lp5375
F6.9000000000000004
aa(lp5376
F0
aa(lp5377
F0
aa(lp5378
F0
aa(lp5379
F0
aa(lp5380
F0
aa(lp5381
F0
aa(lp5382
F0
aa(lp5383
F0
aa(lp5384
F0
aa(lp5385
F0
aa(lp5386
F0
aa(lp5387
F202.90000000000001
aa(lp5388
F922.70000000000005
aa(lp5389
F1676.2
aa(lp5390
F2255.0999999999999
aa(lp5391
F2639.4000000000001
aa(lp5392
F2813
aa(lp5393
F2720.5
aa(lp5394
F2411.8000000000002
aa(lp5395
F1896
aa(lp5396
F1223.3
aa(lp5397
F464
aa(lp5398
F21
aa(lp5399
F3.7000000000000002
aa(lp5400
F0
aa(lp5401
F0
aa(lp5402
F0
aa(lp5403
F0
aa(lp5404
F0
aa(lp5405
F0
aa(lp5406
F0
aa(lp5407
F0
aa(lp5408
F0
aa(lp5409
F0
aa(lp5410
F0
aa(lp5411
F206.69999999999999
aa(lp5412
F923.5
aa(lp5413
F1701.5
aa(lp5414
F2281.5999999999999
aa(lp5415
F2677.6999999999998
aa(lp5416
F2862.1999999999998
aa(lp5417
F2780.5999999999999
aa(lp5418
F2463.0999999999999
aa(lp5419
F1939
aa(lp5420
F1264
aa(lp5421
F495.5
aa(lp5422
F24.300000000000001
aa(lp5423
F4.9000000000000004
aa(lp5424
F0
aa(lp5425
F0
aa(lp5426
F0
aa(lp5427
F0
aa(lp5428
F0
aa(lp5429
F0
aa(lp5430
F0
aa(lp5431
F0
aa(lp5432
F0
aa(lp5433
F0
aa(lp5434
F0
aa(lp5435
F176.5
aa(lp5436
F822.60000000000002
aa(lp5437
F1617.3
aa(lp5438
F2117
aa(lp5439
F2384.6999999999998
aa(lp5440
F2763.3000000000002
aa(lp5441
F2524.3000000000002
aa(lp5442
F2153.5999999999999
aa(lp5443
F1209.5999999999999
aa(lp5444
F1027.7
aa(lp5445
F430.60000000000002
aa(lp5446
F42.299999999999997
aa(lp5447
F5.2999999999999998
aa(lp5448
F0
aa(lp5449
F0
aa(lp5450
F0
aa(lp5451
F0
aa(lp5452
F0
aa(lp5453
F0
aa(lp5454
F0
aa(lp5455
F0
aa(lp5456
F0
aa(lp5457
F0
aa(lp5458
F0
aa(lp5459
F176.40000000000001
aa(lp5460
F848.39999999999998
aa(lp5461
F946
aa(lp5462
F2046.0999999999999
aa(lp5463
F2484
aa(lp5464
F3017
aa(lp5465
F2329
aa(lp5466
F1521.5999999999999
aa(lp5467
F1556.0999999999999
aa(lp5468
F1063.9000000000001
aa(lp5469
F440.80000000000001
aa(lp5470
F21.699999999999999
aa(lp5471
F6.7000000000000002
aa(lp5472
F0
aa(lp5473
F0
aa(lp5474
F0
aa(lp5475
F0
aa(lp5476
F0
aa(lp5477
F0
aa(lp5478
F0
aa(lp5479
F0
aa(lp5480
F0
aa(lp5481
F0
aa(lp5482
F0
aa(lp5483
F225.30000000000001
aa(lp5484
F146.5
aa(lp5485
F741.39999999999998
aa(lp5486
F1645.0999999999999
aa(lp5487
F1015.5
aa(lp5488
F2252.4000000000001
aa(lp5489
F2699.1999999999998
aa(lp5490
F2410.5999999999999
aa(lp5491
F1907.0999999999999
aa(lp5492
F1216.0999999999999
aa(lp5493
F448.89999999999998
aa(lp5494
F22.399999999999999
aa(lp5495
F5.2999999999999998
aa(lp5496
F0
aa(lp5497
F0
aa(lp5498
F0
aa(lp5499
F0
aa(lp5500
F0
aa(lp5501
F0
aa(lp5502
F0
aa(lp5503
F0
aa(lp5504
F0
aa(lp5505
F0
aa(lp5506
F0
aa(lp5507
F221.5
aa(lp5508
F936
aa(lp5509
F1696.9000000000001
aa(lp5510
F2273.4000000000001
aa(lp5511
F2668.6999999999998
aa(lp5512
F2864.5
aa(lp5513
F2792.0999999999999
aa(lp5514
F2450.9000000000001
aa(lp5515
F1923
aa(lp5516
F1249.0999999999999
aa(lp5517
F506.5
aa(lp5518
F25.100000000000001
aa(lp5519
F10.300000000000001
aa(lp5520
F0
aa(lp5521
F0
aa(lp5522
F0
aa(lp5523
F0
aa(lp5524
F0
aa(lp5525
F0
aa(lp5526
F0
aa(lp5527
F0
aa(lp5528
F0
aa(lp5529
F0
aa(lp5530
F0
aa(lp5531
F243.59999999999999
aa(lp5532
F975
aa(lp5533
F1727.5999999999999
aa(lp5534
F2297.4000000000001
aa(lp5535
F2670.0999999999999
aa(lp5536
F2851.0999999999999
aa(lp5537
F2767.5999999999999
aa(lp5538
F2357.8000000000002
aa(lp5539
F1941.0999999999999
aa(lp5540
F1249.9000000000001
aa(lp5541
F450.60000000000002
aa(lp5542
F20
aa(lp5543
F9.6999999999999993
aa(lp5544
F0
aa(lp5545
F0
aa(lp5546
F0
aa(lp5547
F0
aa(lp5548
F0
aa(lp5549
F0
aa(lp5550
F0
aa(lp5551
F0
aa(lp5552
F0
aa(lp5553
F0
aa(lp5554
F0
aa(lp5555
F244.5
aa(lp5556
F963.39999999999998
aa(lp5557
F1714
aa(lp5558
F2283.8000000000002
aa(lp5559
F2677.8000000000002
aa(lp5560
F2855.9000000000001
aa(lp5561
F2732.5999999999999
aa(lp5562
F2341.9000000000001
aa(lp5563
F1911.0999999999999
aa(lp5564
F1043.3
aa(lp5565
F469
aa(lp5566
F31.699999999999999
aa(lp5567
F5.2999999999999998
aa(lp5568
F0
aa(lp5569
F0
aa(lp5570
F0
aa(lp5571
F0
aa(lp5572
F0
aa(lp5573
F0
aa(lp5574
F0
aa(lp5575
F0
aa(lp5576
F0
aa(lp5577
F0
aa(lp5578
F0
aa(lp5579
F257.39999999999998
aa(lp5580
F1017.2
aa(lp5581
F1773.5
aa(lp5582
F2334.8000000000002
aa(lp5583
F2726.8000000000002
aa(lp5584
F2939.8000000000002
aa(lp5585
F2855.4000000000001
aa(lp5586
F2528.5
aa(lp5587
F1969.5999999999999
aa(lp5588
F1305.0999999999999
aa(lp5589
F493.80000000000001
aa(lp5590
F22.300000000000001
aa(lp5591
F6.7999999999999998
aa(lp5592
F0
aa(lp5593
F0
aa(lp5594
F0
aa(lp5595
F0
aa(lp5596
F0
aa(lp5597
F0
aa(lp5598
F0
aa(lp5599
F0
aa(lp5600
F0
aa(lp5601
F0
aa(lp5602
F0
aa(lp5603
F125.3
aa(lp5604
F829.79999999999995
aa(lp5605
F1705.9000000000001
aa(lp5606
F1986.5999999999999
aa(lp5607
F2681.5
aa(lp5608
F2810.8000000000002
aa(lp5609
F2726.5
aa(lp5610
F2415.1999999999998
aa(lp5611
F867.5
aa(lp5612
F629.60000000000002
aa(lp5613
F198.09999999999999
aa(lp5614
F14.800000000000001
aa(lp5615
F4.7999999999999998
aa(lp5616
F0
aa(lp5617
F0
aa(lp5618
F0
aa(lp5619
F0
aa(lp5620
F0
aa(lp5621
F0
aa(lp5622
F0
aa(lp5623
F0
aa(lp5624
F0
aa(lp5625
F0
aa(lp5626
F0
aa(lp5627
F271.69999999999999
aa(lp5628
F983.29999999999995
aa(lp5629
F1797.5999999999999
aa(lp5630
F2380.3000000000002
aa(lp5631
F2800.5
aa(lp5632
F3019.4000000000001
aa(lp5633
F2942.3000000000002
aa(lp5634
F2603.0999999999999
aa(lp5635
F2071.9000000000001
aa(lp5636
F1381.7
aa(lp5637
F569.20000000000005
aa(lp5638
F34.5
aa(lp5639
F7.2999999999999998
aa(lp5640
F0
aa(lp5641
F0
aa(lp5642
F0
aa(lp5643
F0
aa(lp5644
F0
aa(lp5645
F0
aa(lp5646
F0
aa(lp5647
F0
aa(lp5648
F0
aa(lp5649
F0
aa(lp5650
F0
aa(lp5651
F273.30000000000001
aa(lp5652
F1053.8
aa(lp5653
F1830.2
aa(lp5654
F2394.3000000000002
aa(lp5655
F2789.4000000000001
aa(lp5656
F2633.5
aa(lp5657
F2299.1999999999998
aa(lp5658
F2600.1999999999998
aa(lp5659
F2175.1999999999998
aa(lp5660
F1256.2
aa(lp5661
F305
aa(lp5662
F40.799999999999997
aa(lp5663
F5.9000000000000004
aa(lp5664
F0
aa(lp5665
F0
aa(lp5666
F0
aa(lp5667
F0
aa(lp5668
F0
aa(lp5669
F0
aa(lp5670
F0
aa(lp5671
F0
aa(lp5672
F0
aa(lp5673
F0
aa(lp5674
F0
aa(lp5675
F208.90000000000001
aa(lp5676
F705
aa(lp5677
F1162.3
aa(lp5678
F1885.9000000000001
aa(lp5679
F1562
aa(lp5680
F2535.3000000000002
aa(lp5681
F1930.9000000000001
aa(lp5682
F1522
aa(lp5683
F1840.5999999999999
aa(lp5684
F1386.8
aa(lp5685
F572.5
aa(lp5686
F19.899999999999999
aa(lp5687
F9.3000000000000007
aa(lp5688
F0
aa(lp5689
F0
aa(lp5690
F0
aa(lp5691
F0
aa(lp5692
F0
aa(lp5693
F0
aa(lp5694
F0
aa(lp5695
F0
aa(lp5696
F0
aa(lp5697
F0
aa(lp5698
F0
aa(lp5699
F219.5
aa(lp5700
F962.29999999999995
aa(lp5701
F1697.3
aa(lp5702
F2266.1999999999998
aa(lp5703
F2680.3000000000002
aa(lp5704
F2882.1999999999998
aa(lp5705
F2769.6999999999998
aa(lp5706
F2407
aa(lp5707
F1863.9000000000001
aa(lp5708
F1184.5999999999999
aa(lp5709
F461.80000000000001
aa(lp5710
F29.100000000000001
aa(lp5711
F3.2999999999999998
aa(lp5712
F0
aa(lp5713
F0
aa(lp5714
F0
aa(lp5715
F0
aa(lp5716
F0
aa(lp5717
F0
aa(lp5718
F0
aa(lp5719
F0
aa(lp5720
F0
aa(lp5721
F0
aa(lp5722
F0
aa(lp5723
F80.099999999999994
aa(lp5724
F307.80000000000001
aa(lp5725
F462.60000000000002
aa(lp5726
F947.70000000000005
aa(lp5727
F2375.0999999999999
aa(lp5728
F2971.3000000000002
aa(lp5729
F2872.4000000000001
aa(lp5730
F2545
aa(lp5731
F1995
aa(lp5732
F1291.0999999999999
aa(lp5733
F516.5
aa(lp5734
F33.700000000000003
aa(lp5735
F5.5999999999999996
aa(lp5736
F0
aa(lp5737
F0
aa(lp5738
F0
aa(lp5739
F0
aa(lp5740
F0
aa(lp5741
F0
aa(lp5742
F0
aa(lp5743
F0
aa(lp5744
F0
aa(lp5745
F0
aa(lp5746
F0
aa(lp5747
F42.899999999999999
aa(lp5748
F236
aa(lp5749
F546.10000000000002
aa(lp5750
F1036
aa(lp5751
F1177.8
aa(lp5752
F2635.6999999999998
aa(lp5753
F2436.0999999999999
aa(lp5754
F1040.3
aa(lp5755
F674.70000000000005
aa(lp5756
F415.19999999999999
aa(lp5757
F200.09999999999999
aa(lp5758
F35.700000000000003
aa(lp5759
F3.1000000000000001
aa(lp5760
F0
aa(lp5761
F0
aa(lp5762
F0
aa(lp5763
F0
aa(lp5764
F0
aa(lp5765
F0
aa(lp5766
F0
aa(lp5767
F0
aa(lp5768
F0
aa(lp5769
F0
aa(lp5770
F0
aa(lp5771
F265.5
aa(lp5772
F981.20000000000005
aa(lp5773
F1789.4000000000001
aa(lp5774
F2320
aa(lp5775
F2382.8000000000002
aa(lp5776
F2160.1999999999998
aa(lp5777
F2596.3000000000002
aa(lp5778
F1945.5999999999999
aa(lp5779
F1817.5999999999999
aa(lp5780
F1083.5
aa(lp5781
F299.5
aa(lp5782
F23.5
aa(lp5783
F4.2000000000000002
aa(lp5784
F0
aa(lp5785
F0
aa(lp5786
F0
aa(lp5787
F0
aa(lp5788
F0
aa(lp5789
F0
aa(lp5790
F0
aa(lp5791
F0
aa(lp5792
F0
aa(lp5793
F0
aa(lp5794
F1.1000000000000001
aa(lp5795
F129.69999999999999
aa(lp5796
F569.20000000000005
aa(lp5797
F1568.3
aa(lp5798
F2440.4000000000001
aa(lp5799
F0
aa(lp5800
F0
aa(lp5801
F0
aa(lp5802
F2555.3000000000002
aa(lp5803
F2010.0999999999999
aa(lp5804
F1320.9000000000001
aa(lp5805
F530.79999999999995
aa(lp5806
F37.200000000000003
aa(lp5807
F7.2000000000000002
aa(lp5808
F0
aa(lp5809
F0
aa(lp5810
F0
aa(lp5811
F0
aa(lp5812
F0
aa(lp5813
F0
aa(lp5814
F0
aa(lp5815
F0
aa(lp5816
F0
aa(lp5817
F0
aa(lp5818
F0.90000000000000002
aa(lp5819
F373.10000000000002
aa(lp5820
F1189
aa(lp5821
F1967.2
aa(lp5822
F2516.8000000000002
aa(lp5823
F2912.9000000000001
aa(lp5824
F3079.5999999999999
aa(lp5825
F2977.5
aa(lp5826
F2630.4000000000001
aa(lp5827
F2079.5999999999999
aa(lp5828
F1385.8
aa(lp5829
F570.70000000000005
aa(lp5830
F41.600000000000001
aa(lp5831
F3.7000000000000002
aa(lp5832
F0
aa(lp5833
F0
aa(lp5834
F0
aa(lp5835
F0
aa(lp5836
F0
aa(lp5837
F0
aa(lp5838
F0
aa(lp5839
F0
aa(lp5840
F0
aa(lp5841
F0
aa(lp5842
F1.8999999999999999
aa(lp5843
F371.39999999999998
aa(lp5844
F1179.5999999999999
aa(lp5845
F1946.5
aa(lp5846
F2493.1999999999998
aa(lp5847
F2891.5
aa(lp5848
F3046.9000000000001
aa(lp5849
F2930.5
aa(lp5850
F2580.5999999999999
aa(lp5851
F2006.4000000000001
aa(lp5852
F1304.8
aa(lp5853
F531.89999999999998
aa(lp5854
F38.899999999999999
aa(lp5855
F4.2999999999999998
aa(lp5856
F0
aa(lp5857
F0
aa(lp5858
F0
aa(lp5859
F0
aa(lp5860
F0
aa(lp5861
F0
aa(lp5862
F0
aa(lp5863
F0
aa(lp5864
F0
aa(lp5865
F0
aa(lp5866
F3.7000000000000002
aa(lp5867
F376.10000000000002
aa(lp5868
F1186.9000000000001
aa(lp5869
F1936
aa(lp5870
F2416.5
aa(lp5871
F2826.5
aa(lp5872
F2972.9000000000001
aa(lp5873
F2838.3000000000002
aa(lp5874
F2524.3000000000002
aa(lp5875
F2004.7
aa(lp5876
F1316.5
aa(lp5877
F532
aa(lp5878
F31.899999999999999
aa(lp5879
F5.2999999999999998
aa(lp5880
F0
aa(lp5881
F0
aa(lp5882
F0
aa(lp5883
F0
aa(lp5884
F0
aa(lp5885
F0
aa(lp5886
F0
aa(lp5887
F0
aa(lp5888
F0
aa(lp5889
F0
aa(lp5890
F2.2999999999999998
aa(lp5891
F348
aa(lp5892
F1115.4000000000001
aa(lp5893
F1861.9000000000001
aa(lp5894
F2412
aa(lp5895
F2808.0999999999999
aa(lp5896
F2974.5
aa(lp5897
F2865.3000000000002
aa(lp5898
F2506.9000000000001
aa(lp5899
F1902.8
aa(lp5900
F1285.4000000000001
aa(lp5901
F510.30000000000001
aa(lp5902
F34.399999999999999
aa(lp5903
F3.7999999999999998
aa(lp5904
F0
aa(lp5905
F0
aa(lp5906
F0
aa(lp5907
F0
aa(lp5908
F0
aa(lp5909
F0
aa(lp5910
F0
aa(lp5911
F0
aa(lp5912
F0
aa(lp5913
F0
aa(lp5914
F2.7999999999999998
aa(lp5915
F324.69999999999999
aa(lp5916
F1051.7
aa(lp5917
F1779.2
aa(lp5918
F2333.8000000000002
aa(lp5919
F2751.0999999999999
aa(lp5920
F2943.5999999999999
aa(lp5921
F2829.5
aa(lp5922
F2477.6999999999998
aa(lp5923
F1927.7
aa(lp5924
F1256
aa(lp5925
F526.39999999999998
aa(lp5926
F37.700000000000003
aa(lp5927
F4.9000000000000004
aa(lp5928
F0
aa(lp5929
F0
aa(lp5930
F0
aa(lp5931
F0
aa(lp5932
F0
aa(lp5933
F0
aa(lp5934
F0
aa(lp5935
F0
aa(lp5936
F0
aa(lp5937
F0
aa(lp5938
F4.7999999999999998
aa(lp5939
F330.5
aa(lp5940
F1088.3
aa(lp5941
F1825.7
aa(lp5942
F2377.5
aa(lp5943
F2791.0999999999999
aa(lp5944
F2979.8000000000002
aa(lp5945
F2868.5999999999999
aa(lp5946
F2485.0999999999999
aa(lp5947
F1937.9000000000001
aa(lp5948
F1249.8
aa(lp5949
F492
aa(lp5950
F33.899999999999999
aa(lp5951
F4.2999999999999998
aa(lp5952
F0
aa(lp5953
F0
aa(lp5954
F0
aa(lp5955
F0
aa(lp5956
F0
aa(lp5957
F0
aa(lp5958
F0
aa(lp5959
F0
aa(lp5960
F0
aa(lp5961
F0
aa(lp5962
F9.5999999999999996
aa(lp5963
F321
aa(lp5964
F1140.8
aa(lp5965
F1900.4000000000001
aa(lp5966
F2455.1999999999998
aa(lp5967
F2858.0999999999999
aa(lp5968
F3030.3000000000002
aa(lp5969
F2909
aa(lp5970
F2572.5
aa(lp5971
F1913.7
aa(lp5972
F1232.7
aa(lp5973
F518.79999999999995
aa(lp5974
F45.600000000000001
aa(lp5975
F8
aa(lp5976
F0
aa(lp5977
F0
aa(lp5978
F0
aa(lp5979
F0
aa(lp5980
F0
aa(lp5981
F0
aa(lp5982
F0
aa(lp5983
F0
aa(lp5984
F0
aa(lp5985
F0
aa(lp5986
F3
aa(lp5987
F346.5
aa(lp5988
F1100.9000000000001
aa(lp5989
F1834.5
aa(lp5990
F2405.8000000000002
aa(lp5991
F2843.5999999999999
aa(lp5992
F3023.3000000000002
aa(lp5993
F2853.5
aa(lp5994
F2460.9000000000001
aa(lp5995
F1919.2
aa(lp5996
F1226.7
aa(lp5997
F411.60000000000002
aa(lp5998
F28.800000000000001
aa(lp5999
F1.2
aa(lp6000
F0
aa(lp6001
F0
aa(lp6002
F0
aa(lp6003
F0
aa(lp6004
F0
aa(lp6005
F0
aa(lp6006
F0
aa(lp6007
F0
aa(lp6008
F0
aa(lp6009
F0
aa(lp6010
F3.7000000000000002
aa(lp6011
F298.30000000000001
aa(lp6012
F956.10000000000002
aa(lp6013
F1730.7
aa(lp6014
F2259
aa(lp6015
F2653.0999999999999
aa(lp6016
F2864.0999999999999
aa(lp6017
F2675.3000000000002
aa(lp6018
F2398
aa(lp6019
F1861.2
aa(lp6020
F1212.5
aa(lp6021
F484.89999999999998
aa(lp6022
F33.899999999999999
aa(lp6023
F3.6000000000000001
aa(lp6024
F0
aa(lp6025
F0
aa(lp6026
F0
aa(lp6027
F0
aa(lp6028
F0
aa(lp6029
F0
aa(lp6030
F0
aa(lp6031
F0
aa(lp6032
F0
aa(lp6033
F0
aa(lp6034
F9.4000000000000004
aa(lp6035
F341.5
aa(lp6036
F868
aa(lp6037
F1232.8
aa(lp6038
F645.39999999999998
aa(lp6039
F1465.5999999999999
aa(lp6040
F2759.8000000000002
aa(lp6041
F2168.1999999999998
aa(lp6042
F1857.2
aa(lp6043
F1390
aa(lp6044
F842.79999999999995
aa(lp6045
F247.59999999999999
aa(lp6046
F13.6
aa(lp6047
F3.6000000000000001
aa(lp6048
F0
aa(lp6049
F0
aa(lp6050
F0
aa(lp6051
F0
aa(lp6052
F0
aa(lp6053
F0
aa(lp6054
F0
aa(lp6055
F0
aa(lp6056
F0
aa(lp6057
F0
aa(lp6058
F11.300000000000001
aa(lp6059
F390.69999999999999
aa(lp6060
F1149.0999999999999
aa(lp6061
F1838.5
aa(lp6062
F2381
aa(lp6063
F2736.5
aa(lp6064
F2864.9000000000001
aa(lp6065
F2711.5
aa(lp6066
F2419.1999999999998
aa(lp6067
F1823.9000000000001
aa(lp6068
F1102.4000000000001
aa(lp6069
F361
aa(lp6070
F28.199999999999999
aa(lp6071
F2.8999999999999999
aa(lp6072
F0
aa(lp6073
F0
aa(lp6074
F0
aa(lp6075
F0
aa(lp6076
F0
aa(lp6077
F0
aa(lp6078
F0
aa(lp6079
F0
aa(lp6080
F0
aa(lp6081
F0
aa(lp6082
F8.3000000000000007
aa(lp6083
F325.69999999999999
aa(lp6084
F798.39999999999998
aa(lp6085
F1525
aa(lp6086
F2027.4000000000001
aa(lp6087
F2446.5
aa(lp6088
F2774.8000000000002
aa(lp6089
F2815.3000000000002
aa(lp6090
F1990.5999999999999
aa(lp6091
F1579.7
aa(lp6092
F1130
aa(lp6093
F444.10000000000002
aa(lp6094
F23.699999999999999
aa(lp6095
F2.3999999999999999
aa(lp6096
F0
aa(lp6097
F0
aa(lp6098
F0
aa(lp6099
F0
aa(lp6100
F0
aa(lp6101
F0
aa(lp6102
F0
aa(lp6103
F0
aa(lp6104
F0
aa(lp6105
F0
aa(lp6106
F10.4
aa(lp6107
F339.19999999999999
aa(lp6108
F1024.5
aa(lp6109
F1741.0999999999999
aa(lp6110
F2278.5999999999999
aa(lp6111
F2623
aa(lp6112
F2745.5
aa(lp6113
F2602.4000000000001
aa(lp6114
F2239
aa(lp6115
F1739.2
aa(lp6116
F1119.3
aa(lp6117
F436.19999999999999
aa(lp6118
F31.699999999999999
aa(lp6119
F10.6
aa(lp6120
F0
aa(lp6121
F0
aa(lp6122
F0
aa(lp6123
F0
aa(lp6124
F0
aa(lp6125
F0
aa(lp6126
F0
aa(lp6127
F0
aa(lp6128
F0
aa(lp6129
F0
aa(lp6130
F10.1
aa(lp6131
F224.69999999999999
aa(lp6132
F590.5
aa(lp6133
F1687
aa(lp6134
F2256.4000000000001
aa(lp6135
F2631.8000000000002
aa(lp6136
F2764.9000000000001
aa(lp6137
F2742
aa(lp6138
F2503.6999999999998
aa(lp6139
F1700.3
aa(lp6140
F930.20000000000005
aa(lp6141
F285.30000000000001
aa(lp6142
F19.699999999999999
aa(lp6143
F4.4000000000000004
aa(lp6144
F0
aa(lp6145
F0
aa(lp6146
F0
aa(lp6147
F0
aa(lp6148
F0
aa(lp6149
F0
aa(lp6150
F0
aa(lp6151
F0
aa(lp6152
F0
aa(lp6153
F0
aa(lp6154
F13.9
aa(lp6155
F358
aa(lp6156
F1063.0999999999999
aa(lp6157
F1765.4000000000001
aa(lp6158
F2296.9000000000001
aa(lp6159
F2672.6999999999998
aa(lp6160
F2807
aa(lp6161
F2667.9000000000001
aa(lp6162
F2235.1999999999998
aa(lp6163
F1063.0999999999999
aa(lp6164
F1136.5999999999999
aa(lp6165
F603.20000000000005
aa(lp6166
F43.700000000000003
aa(lp6167
F3.2999999999999998
aa(lp6168
F0
aa(lp6169
F0
aa(lp6170
F0
aa(lp6171
F0
aa(lp6172
F0
aa(lp6173
F0
aa(lp6174
F0
aa(lp6175
F0
aa(lp6176
F0
aa(lp6177
F0
aa(lp6178
F11.5
aa(lp6179
F328.5
aa(lp6180
F1112.7
aa(lp6181
F1764.0999999999999
aa(lp6182
F2311
aa(lp6183
F1881.9000000000001
aa(lp6184
F2489.3000000000002
aa(lp6185
F2696.1999999999998
aa(lp6186
F2403.3000000000002
aa(lp6187
F1806.0999999999999
aa(lp6188
F1139.5
aa(lp6189
F433.80000000000001
aa(lp6190
F33
aa(lp6191
F5.0999999999999996
aa(lp6192
F0
aa(lp6193
F0
aa(lp6194
F0
aa(lp6195
F0
aa(lp6196
F0
aa(lp6197
F0
aa(lp6198
F0
aa(lp6199
F0
aa(lp6200
F0
aa(lp6201
F0
aa(lp6202
F14.800000000000001
aa(lp6203
F371.10000000000002
aa(lp6204
F1183.9000000000001
aa(lp6205
F1811.4000000000001
aa(lp6206
F2312.0999999999999
aa(lp6207
F2700.3000000000002
aa(lp6208
F2834.1999999999998
aa(lp6209
F2267.4000000000001
aa(lp6210
F1907.5999999999999
aa(lp6211
F1047.8
aa(lp6212
F382
aa(lp6213
F116.8
aa(lp6214
F11.199999999999999
aa(lp6215
F7.7000000000000002
aa(lp6216
F0
aa(lp6217
F0
aa(lp6218
F0
aa(lp6219
F0
aa(lp6220
F0
aa(lp6221
F0
aa(lp6222
F0
aa(lp6223
F0
aa(lp6224
F0
aa(lp6225
F0
aa(lp6226
F2.1000000000000001
aa(lp6227
F113.09999999999999
aa(lp6228
F504.30000000000001
aa(lp6229
F900.29999999999995
aa(lp6230
F1128.5999999999999
aa(lp6231
F2122.0999999999999
aa(lp6232
F2395.1999999999998
aa(lp6233
F2185.0999999999999
aa(lp6234
F2370.5
aa(lp6235
F1518
aa(lp6236
F1112.2
aa(lp6237
F557.89999999999998
aa(lp6238
F40.600000000000001
aa(lp6239
F18.600000000000001
aa(lp6240
F0
aa(lp6241
F0
aa(lp6242
F0
aa(lp6243
F0
aa(lp6244
F0
aa(lp6245
F0
aa(lp6246
F0
aa(lp6247
F0
aa(lp6248
F0
aa(lp6249
F0
aa(lp6250
F23.5
aa(lp6251
F395.60000000000002
aa(lp6252
F1123
aa(lp6253
F1879.8
aa(lp6254
F2432.6999999999998
aa(lp6255
F2766.4000000000001
aa(lp6256
F2873.0999999999999
aa(lp6257
F2871.1999999999998
aa(lp6258
F2461.6999999999998
aa(lp6259
F1842.2
aa(lp6260
F1205.3
aa(lp6261
F381
aa(lp6262
F25.100000000000001
aa(lp6263
F1.2
aa(lp6264
F0
aa(lp6265
F0
aa(lp6266
F0
aa(lp6267
F0
aa(lp6268
F0
aa(lp6269
F0
aa(lp6270
F0
aa(lp6271
F0
aa(lp6272
F0
aa(lp6273
F0
aa(lp6274
F20.800000000000001
aa(lp6275
F394.5
aa(lp6276
F1145.3
aa(lp6277
F1835
aa(lp6278
F2359.3000000000002
aa(lp6279
F2753.0999999999999
aa(lp6280
F2862.5
aa(lp6281
F2309.9000000000001
aa(lp6282
F2103.0999999999999
aa(lp6283
F1763.9000000000001
aa(lp6284
F1197.5999999999999
aa(lp6285
F482.80000000000001
aa(lp6286
F34
aa(lp6287
F4.9000000000000004
aa(lp6288
F0
aa(lp6289
F0
aa(lp6290
F0
aa(lp6291
F0
aa(lp6292
F0
aa(lp6293
F0
aa(lp6294
F0
aa(lp6295
F0
aa(lp6296
F0
aa(lp6297
F0
aa(lp6298
F8.5
aa(lp6299
F127
aa(lp6300
F408.60000000000002
aa(lp6301
F1579
aa(lp6302
F2136.6999999999998
aa(lp6303
F800.89999999999998
aa(lp6304
F968.10000000000002
aa(lp6305
F616.70000000000005
aa(lp6306
F222.09999999999999
aa(lp6307
F784
aa(lp6308
F320.80000000000001
aa(lp6309
F97.599999999999994
aa(lp6310
F7.2999999999999998
aa(lp6311
F5.2000000000000002
aa(lp6312
F0
aa(lp6313
F0
aa(lp6314
F0
aa(lp6315
F0
aa(lp6316
F0
aa(lp6317
F0
aa(lp6318
F0
aa(lp6319
F0
aa(lp6320
F0
aa(lp6321
F0
aa(lp6322
F14.6
aa(lp6323
F230.09999999999999
aa(lp6324
F773.20000000000005
aa(lp6325
F729.10000000000002
aa(lp6326
F1555.4000000000001
aa(lp6327
F1867.5
aa(lp6328
F1278.0999999999999
aa(lp6329
F858.39999999999998
aa(lp6330
F591.79999999999995
aa(lp6331
F131.59999999999999
aa(lp6332
F2.6000000000000001
aa(lp6333
F6.2000000000000002
aa(lp6334
F7
aa(lp6335
F8.9000000000000004
aa(lp6336
F0
aa(lp6337
F0
aa(lp6338
F0
aa(lp6339
F0
aa(lp6340
F0
aa(lp6341
F0
aa(lp6342
F0
aa(lp6343
F0
aa(lp6344
F0
aa(lp6345
F0
aa(lp6346
F0
aa(lp6347
F2.3999999999999999
aa(lp6348
F8.5
aa(lp6349
F14
aa(lp6350
F34.799999999999997
aa(lp6351
F487.10000000000002
aa(lp6352
F429.10000000000002
aa(lp6353
F365.19999999999999
aa(lp6354
F885.39999999999998
aa(lp6355
F828.20000000000005
aa(lp6356
F813.60000000000002
aa(lp6357
F623.10000000000002
aa(lp6358
F72.900000000000006
aa(lp6359
F6.0999999999999996
aa(lp6360
F0
aa(lp6361
F0
aa(lp6362
F0
aa(lp6363
F0
aa(lp6364
F0
aa(lp6365
F0
aa(lp6366
F0
aa(lp6367
F0
aa(lp6368
F0
aa(lp6369
F0
aa(lp6370
F64.200000000000003
aa(lp6371
F731.89999999999998
aa(lp6372
F1637.3
aa(lp6373
F2437.0999999999999
aa(lp6374
F3035.6999999999998
aa(lp6375
F3432.4000000000001
aa(lp6376
F3583.6999999999998
aa(lp6377
F3471.8000000000002
aa(lp6378
F3014
aa(lp6379
F2418.3000000000002
aa(lp6380
F1641.7
aa(lp6381
F752
aa(lp6382
F84.400000000000006
aa(lp6383
F3.8999999999999999
aa(lp6384
F0
aa(lp6385
F0
aa(lp6386
F0
aa(lp6387
F0
aa(lp6388
F0
aa(lp6389
F0
aa(lp6390
F0
aa(lp6391
F0
aa(lp6392
F0
aa(lp6393
F0
aa(lp6394
F46.700000000000003
aa(lp6395
F639.29999999999995
aa(lp6396
F1595.3
aa(lp6397
F2404
aa(lp6398
F2978.6999999999998
aa(lp6399
F3338.3000000000002
aa(lp6400
F3425.1999999999998
aa(lp6401
F3319.5
aa(lp6402
F2825.9000000000001
aa(lp6403
F2248.8000000000002
aa(lp6404
F1109.9000000000001
aa(lp6405
F662.29999999999995
aa(lp6406
F51.899999999999999
aa(lp6407
F5.0999999999999996
aa(lp6408
F0
aa(lp6409
F0
aa(lp6410
F0
aa(lp6411
F0
aa(lp6412
F0
aa(lp6413
F0
aa(lp6414
F0
aa(lp6415
F0
aa(lp6416
F0
aa(lp6417
F0
aa(lp6418
F43.200000000000003
aa(lp6419
F577.39999999999998
aa(lp6420
F1095.9000000000001
aa(lp6421
F2092.4000000000001
aa(lp6422
F2559.0999999999999
aa(lp6423
F2988.1999999999998
aa(lp6424
F3264.0999999999999
aa(lp6425
F2760.5
aa(lp6426
F2489.1999999999998
aa(lp6427
F2029.7
aa(lp6428
F1112.8
aa(lp6429
F588.89999999999998
aa(lp6430
F64.400000000000006
aa(lp6431
F6.2999999999999998
aa(lp6432
F0
aa(lp6433
F0
aa(lp6434
F0
aa(lp6435
F0
aa(lp6436
F0
aa(lp6437
F0
aa(lp6438
F0
aa(lp6439
F0
aa(lp6440
F0
aa(lp6441
F0
aa(lp6442
F0.90000000000000002
aa(lp6443
F44.600000000000001
aa(lp6444
F73.299999999999997
aa(lp6445
F104.7
aa(lp6446
F96.599999999999994
aa(lp6447
F258.69999999999999
aa(lp6448
F442
aa(lp6449
F793.5
aa(lp6450
F690.10000000000002
aa(lp6451
F636.29999999999995
aa(lp6452
F314.89999999999998
aa(lp6453
F220.40000000000001
aa(lp6454
F23.699999999999999
aa(lp6455
F2.6000000000000001
aa(lp6456
F0
aa(lp6457
F0
aa(lp6458
F0
aa(lp6459
F0
aa(lp6460
F0
aa(lp6461
F0
aa(lp6462
F0
aa(lp6463
F0
aa(lp6464
F0
aa(lp6465
F0
aa(lp6466
F60.100000000000001
aa(lp6467
F585.60000000000002
aa(lp6468
F1592.3
aa(lp6469
F2407.9000000000001
aa(lp6470
F3029.5999999999999
aa(lp6471
F3433
aa(lp6472
F3596.6999999999998
aa(lp6473
F3494.5
aa(lp6474
F3120.4000000000001
aa(lp6475
F2479.5
aa(lp6476
F1676.5
aa(lp6477
F772.60000000000002
aa(lp6478
F96.799999999999997
aa(lp6479
F7
aa(lp6480
F0
aa(lp6481
F0
aa(lp6482
F0
aa(lp6483
F0
aa(lp6484
F0
aa(lp6485
F0
aa(lp6486
F0
aa(lp6487
F0
aa(lp6488
F0
aa(lp6489
F0
aa(lp6490
F76.700000000000003
aa(lp6491
F817.39999999999998
aa(lp6492
F1601
aa(lp6493
F2500.6999999999998
aa(lp6494
F3125.5999999999999
aa(lp6495
F3551.9000000000001
aa(lp6496
F3683.9000000000001
aa(lp6497
F3520
aa(lp6498
F3068.3000000000002
aa(lp6499
F2461.8000000000002
aa(lp6500
F1819.0999999999999
aa(lp6501
F796.20000000000005
aa(lp6502
F78.900000000000006
aa(lp6503
F8.0999999999999996
aa(lp6504
F0
aa(lp6505
F0
aa(lp6506
F0
aa(lp6507
F0
aa(lp6508
F0
aa(lp6509
F0
aa(lp6510
F0
aa(lp6511
F0
aa(lp6512
F0
aa(lp6513
F0
aa(lp6514
F76.200000000000003
aa(lp6515
F765.10000000000002
aa(lp6516
F1463.8
aa(lp6517
F2215.5999999999999
aa(lp6518
F2967.5999999999999
aa(lp6519
F3328.8000000000002
aa(lp6520
F3479.0999999999999
aa(lp6521
F3164.9000000000001
aa(lp6522
F2922.1999999999998
aa(lp6523
F2124.9000000000001
aa(lp6524
F1575.2
aa(lp6525
F702
aa(lp6526
F48.700000000000003
aa(lp6527
F6.2999999999999998
aa(lp6528
F0
aa(lp6529
F0
aa(lp6530
F0
aa(lp6531
F0
aa(lp6532
F0
aa(lp6533
F0
aa(lp6534
F0
aa(lp6535
F0
aa(lp6536
F0
aa(lp6537
F0
aa(lp6538
F78.299999999999997
aa(lp6539
F843
aa(lp6540
F1344.5999999999999
aa(lp6541
F2317.3000000000002
aa(lp6542
F2771.5999999999999
aa(lp6543
F2522.5999999999999
aa(lp6544
F1579.5
aa(lp6545
F1901.5
aa(lp6546
F711.5
aa(lp6547
F455.39999999999998
aa(lp6548
F379
aa(lp6549
F254.30000000000001
aa(lp6550
F90.799999999999997
aa(lp6551
F7.9000000000000004
aa(lp6552
F0
aa(lp6553
F0
aa(lp6554
F0
aa(lp6555
F0
aa(lp6556
F0
aa(lp6557
F0
aa(lp6558
F0
aa(lp6559
F0
aa(lp6560
F0
aa(lp6561
F0
aa(lp6562
F36.899999999999999
aa(lp6563
F567.20000000000005
aa(lp6564
F1502.7
aa(lp6565
F2283.5999999999999
aa(lp6566
F2836.9000000000001
aa(lp6567
F3232.4000000000001
aa(lp6568
F3355.6999999999998
aa(lp6569
F3207.5
aa(lp6570
F2833.8000000000002
aa(lp6571
F2224.5999999999999
aa(lp6572
F1339
aa(lp6573
F542.10000000000002
aa(lp6574
F65.099999999999994
aa(lp6575
F7.9000000000000004
aa(lp6576
F0
aa(lp6577
F0
aa(lp6578
F0
aa(lp6579
F0
aa(lp6580
F0
aa(lp6581
F0
aa(lp6582
F0
aa(lp6583
F0
aa(lp6584
F0
aa(lp6585
F0
aa(lp6586
F92.700000000000003
aa(lp6587
F600.5
aa(lp6588
F1452.8
aa(lp6589
F2210
aa(lp6590
F2768.1999999999998
aa(lp6591
F2966.3000000000002
aa(lp6592
F3280.8000000000002
aa(lp6593
F2810.5
aa(lp6594
F2619.9000000000001
aa(lp6595
F1736.5999999999999
aa(lp6596
F935.60000000000002
aa(lp6597
F606.89999999999998
aa(lp6598
F65.099999999999994
aa(lp6599
F3.7000000000000002
aa(lp6600
F0
aa(lp6601
F0
aa(lp6602
F0
aa(lp6603
F0
aa(lp6604
F0
aa(lp6605
F0
aa(lp6606
F0
aa(lp6607
F0
aa(lp6608
F0
aa(lp6609
F0
aa(lp6610
F34
aa(lp6611
F587.5
aa(lp6612
F1716.8
aa(lp6613
F1155.8
aa(lp6614
F642.89999999999998
aa(lp6615
F2250.3000000000002
aa(lp6616
F2722.6999999999998
aa(lp6617
F2924.0999999999999
aa(lp6618
F2672.3000000000002
aa(lp6619
F2138
aa(lp6620
F1455.5
aa(lp6621
F326.60000000000002
aa(lp6622
F9.9000000000000004
aa(lp6623
F2.8999999999999999
aa(lp6624
F0
aa(lp6625
F0
aa(lp6626
F0
aa(lp6627
F0
aa(lp6628
F0
aa(lp6629
F0
aa(lp6630
F0
aa(lp6631
F0
aa(lp6632
F0
aa(lp6633
F0
aa(lp6634
F53.5
aa(lp6635
F317.19999999999999
aa(lp6636
F1066.9000000000001
aa(lp6637
F1855.3
aa(lp6638
F2087.6999999999998
aa(lp6639
F2063.5
aa(lp6640
F1942.4000000000001
aa(lp6641
F1044.9000000000001
aa(lp6642
F596.39999999999998
aa(lp6643
F1496.2
aa(lp6644
F896.60000000000002
aa(lp6645
F255.40000000000001
aa(lp6646
F6.7999999999999998
aa(lp6647
F4.0999999999999996
aa(lp6648
F0
aa(lp6649
F0
aa(lp6650
F0
aa(lp6651
F0
aa(lp6652
F0
aa(lp6653
F0
aa(lp6654
F0
aa(lp6655
F0
aa(lp6656
F0
aa(lp6657
F0
aa(lp6658
F9.5999999999999996
aa(lp6659
F270.30000000000001
aa(lp6660
F832.29999999999995
aa(lp6661
F2154.5999999999999
aa(lp6662
F2948.1999999999998
aa(lp6663
F2411.4000000000001
aa(lp6664
F1975.8
aa(lp6665
F1436.5999999999999
aa(lp6666
F2066.1999999999998
aa(lp6667
F1327.2
aa(lp6668
F794.39999999999998
aa(lp6669
F232.80000000000001
aa(lp6670
F9.4000000000000004
aa(lp6671
F8.0999999999999996
aa(lp6672
F0
aa(lp6673
F0
aa(lp6674
F0
aa(lp6675
F0
aa(lp6676
F0
aa(lp6677
F0
aa(lp6678
F0
aa(lp6679
F0
aa(lp6680
F0
aa(lp6681
F0
aa(lp6682
F9.6999999999999993
aa(lp6683
F95.299999999999997
aa(lp6684
F328.30000000000001
aa(lp6685
F415.60000000000002
aa(lp6686
F829.20000000000005
aa(lp6687
F1029.5
aa(lp6688
F3099.0999999999999
aa(lp6689
F3093.1999999999998
aa(lp6690
F2307.5999999999999
aa(lp6691
F722.79999999999995
aa(lp6692
F232.69999999999999
aa(lp6693
F136.90000000000001
aa(lp6694
F32.200000000000003
aa(lp6695
F5.4000000000000004
aa(lp6696
F0
aa(lp6697
F0
aa(lp6698
F0
aa(lp6699
F0
aa(lp6700
F0
aa(lp6701
F0
aa(lp6702
F0
aa(lp6703
F0
aa(lp6704
F0
aa(lp6705
F0
aa(lp6706
F43.5
aa(lp6707
F585.10000000000002
aa(lp6708
F1406.7
aa(lp6709
F2183.9000000000001
aa(lp6710
F2793.5
aa(lp6711
F3157.8000000000002
aa(lp6712
F3250.6999999999998
aa(lp6713
F3001.9000000000001
aa(lp6714
F2628.0999999999999
aa(lp6715
F2079.5
aa(lp6716
F1138
aa(lp6717
F417.30000000000001
aa(lp6718
F72.5
aa(lp6719
F10.4
aa(lp6720
F0
aa(lp6721
F0
aa(lp6722
F0
aa(lp6723
F0
aa(lp6724
F0
aa(lp6725
F0
aa(lp6726
F0
aa(lp6727
F0
aa(lp6728
F0
aa(lp6729
F0
aa(lp6730
F77
aa(lp6731
F683.20000000000005
aa(lp6732
F1512.3
aa(lp6733
F2262
aa(lp6734
F2851.0999999999999
aa(lp6735
F3240.3000000000002
aa(lp6736
F3358.0999999999999
aa(lp6737
F3038.9000000000001
aa(lp6738
F2798.9000000000001
aa(lp6739
F2242.8000000000002
aa(lp6740
F1053.5999999999999
aa(lp6741
F533.79999999999995
aa(lp6742
F45.399999999999999
aa(lp6743
F3
aa(lp6744
F0
aa(lp6745
F0
aa(lp6746
F0
aa(lp6747
F0
aa(lp6748
F0
aa(lp6749
F0
aa(lp6750
F0
aa(lp6751
F0
aa(lp6752
F0
aa(lp6753
F0
aa(lp6754
F102.2
aa(lp6755
F756.29999999999995
aa(lp6756
F1601.5999999999999
aa(lp6757
F2354.6999999999998
aa(lp6758
F2943.8000000000002
aa(lp6759
F3271.9000000000001
aa(lp6760
F3214.5999999999999
aa(lp6761
F3467.5999999999999
aa(lp6762
F3146
aa(lp6763
F1820.7
aa(lp6764
F737.10000000000002
aa(lp6765
F503
aa(lp6766
F54
aa(lp6767
F3.2000000000000002
aa(lp6768
F0
aa(lp6769
F0
aa(lp6770
F0
aa(lp6771
F0
aa(lp6772
F0
aa(lp6773
F0
aa(lp6774
F0
aa(lp6775
F0
aa(lp6776
F0
aa(lp6777
F0
aa(lp6778
F99.200000000000003
aa(lp6779
F756.60000000000002
aa(lp6780
F1600.8
aa(lp6781
F2354.3000000000002
aa(lp6782
F2906.5999999999999
aa(lp6783
F3263.5
aa(lp6784
F3380.3000000000002
aa(lp6785
F3072.9000000000001
aa(lp6786
F2549.3000000000002
aa(lp6787
F1738.5
aa(lp6788
F801.10000000000002
aa(lp6789
F377
aa(lp6790
F102.7
aa(lp6791
F3.7999999999999998
aa(lp6792
F0
aa(lp6793
F0
aa(lp6794
F0
aa(lp6795
F0
aa(lp6796
F0
aa(lp6797
F0
aa(lp6798
F0
aa(lp6799
F0
aa(lp6800
F0
aa(lp6801
F0
aa(lp6802
F15
aa(lp6803
F71
aa(lp6804
F15.6
aa(lp6805
F16.600000000000001
aa(lp6806
F158.40000000000001
aa(lp6807
F365.89999999999998
aa(lp6808
F702.60000000000002
aa(lp6809
F795.29999999999995
aa(lp6810
F536.5
aa(lp6811
F772.70000000000005
aa(lp6812
F76.5
aa(lp6813
F361.19999999999999
aa(lp6814
F29
aa(lp6815
F5.0999999999999996
aa(lp6816
F0
aa(lp6817
F0
aa(lp6818
F0
aa(lp6819
F0
aa(lp6820
F0
aa(lp6821
F0
aa(lp6822
F0
aa(lp6823
F0
aa(lp6824
F0
aa(lp6825
F0
aa(lp6826
F11.4
aa(lp6827
F116.5
aa(lp6828
F257
aa(lp6829
F395.39999999999998
aa(lp6830
F871.79999999999995
aa(lp6831
F807.60000000000002
aa(lp6832
F755.79999999999995
aa(lp6833
F496.19999999999999
aa(lp6834
F629.29999999999995
aa(lp6835
F1300.5
aa(lp6836
F964.20000000000005
aa(lp6837
F280.89999999999998
aa(lp6838
F11.5
aa(lp6839
F5.7000000000000002
aa(lp6840
F0
aa(lp6841
F0
aa(lp6842
F0
aa(lp6843
F0
aa(lp6844
F0
aa(lp6845
F0
aa(lp6846
F0
aa(lp6847
F0
aa(lp6848
F0
aa(lp6849
F0
aa(lp6850
F70.5
aa(lp6851
F447.89999999999998
aa(lp6852
F1014.2
aa(lp6853
F1790.2
aa(lp6854
F1929.7
aa(lp6855
F933.39999999999998
aa(lp6856
F1363
aa(lp6857
F2109.3000000000002
aa(lp6858
F1580.8
aa(lp6859
F1122.5
aa(lp6860
F567
aa(lp6861
F501.10000000000002
aa(lp6862
F71.099999999999994
aa(lp6863
F5.5
aa(lp6864
F0
aa(lp6865
F0
aa(lp6866
F0
aa(lp6867
F0
aa(lp6868
F0
aa(lp6869
F0
aa(lp6870
F0
aa(lp6871
F0
aa(lp6872
F0
aa(lp6873
F0
aa(lp6874
F113.7
aa(lp6875
F520.79999999999995
aa(lp6876
F1030.2
aa(lp6877
F1602.9000000000001
aa(lp6878
F2527.3000000000002
aa(lp6879
F3445.4000000000001
aa(lp6880
F2893.9000000000001
aa(lp6881
F2527.4000000000001
aa(lp6882
F1971.5
aa(lp6883
F1533.4000000000001
aa(lp6884
F1249.5
aa(lp6885
F709.60000000000002
aa(lp6886
F93.599999999999994
aa(lp6887
F9.5
aa(lp6888
F0
aa(lp6889
F0
aa(lp6890
F0
aa(lp6891
F0
aa(lp6892
F0
aa(lp6893
F0
aa(lp6894
F0
aa(lp6895
F0
aa(lp6896
F0
aa(lp6897
F0
aa(lp6898
F172.90000000000001
aa(lp6899
F912.20000000000005
aa(lp6900
F1770.3
aa(lp6901
F2524.5
aa(lp6902
F3095.5
aa(lp6903
F3447
aa(lp6904
F3544.4000000000001
aa(lp6905
F3392.6999999999998
aa(lp6906
F3020.0999999999999
aa(lp6907
F1660.5
aa(lp6908
F1661
aa(lp6909
F759.29999999999995
aa(lp6910
F89.799999999999997
aa(lp6911
F8.9000000000000004
aa(lp6912
F0
aa(lp6913
F0
aa(lp6914
F0
aa(lp6915
F0
aa(lp6916
F0
aa(lp6917
F0
aa(lp6918
F0
aa(lp6919
F0
aa(lp6920
F0
aa(lp6921
F0
aa(lp6922
F179.40000000000001
aa(lp6923
F929
aa(lp6924
F1781.0999999999999
aa(lp6925
F2505.3000000000002
aa(lp6926
F3073.5999999999999
aa(lp6927
F3428.1999999999998
aa(lp6928
F3548.6999999999998
aa(lp6929
F3210.6999999999998
aa(lp6930
F2978.8000000000002
aa(lp6931
F2351.8000000000002
aa(lp6932
F1615.8
aa(lp6933
F743.10000000000002
aa(lp6934
F68.700000000000003
aa(lp6935
F7.2000000000000002
aa(lp6936
F0
aa(lp6937
F0
aa(lp6938
F0
aa(lp6939
F0
aa(lp6940
F0
aa(lp6941
F0
aa(lp6942
F0
aa(lp6943
F0
aa(lp6944
F0
aa(lp6945
F0
aa(lp6946
F4.9000000000000004
aa(lp6947
F20.300000000000001
aa(lp6948
F75.400000000000006
aa(lp6949
F255.09999999999999
aa(lp6950
F790.79999999999995
aa(lp6951
F1287.0999999999999
aa(lp6952
F1145.8
aa(lp6953
F1579.5999999999999
aa(lp6954
F2129.3000000000002
aa(lp6955
F1124.8
aa(lp6956
F586.89999999999998
aa(lp6957
F206.59999999999999
aa(lp6958
F41
aa(lp6959
F5.5
aa(lp6960
F0
aa(lp6961
F0
aa(lp6962
F0
aa(lp6963
F0
aa(lp6964
F0
aa(lp6965
F0
aa(lp6966
F0
aa(lp6967
F0
aa(lp6968
F0
aa(lp6969
F0
aa(lp6970
F62
aa(lp6971
F894.89999999999998
aa(lp6972
F1708.7
aa(lp6973
F2499.1999999999998
aa(lp6974
F3034
aa(lp6975
F3316.0999999999999
aa(lp6976
F2330.3000000000002
aa(lp6977
F2768.6999999999998
aa(lp6978
F2571.6999999999998
aa(lp6979
F2394
aa(lp6980
F1652.8
aa(lp6981
F736.70000000000005
aa(lp6982
F86.200000000000003
aa(lp6983
F2.6000000000000001
aa(lp6984
F0
aa(lp6985
F0
aa(lp6986
F0
aa(lp6987
F0
aa(lp6988
F0
aa(lp6989
F0
aa(lp6990
F0
aa(lp6991
F0
aa(lp6992
F0
aa(lp6993
F0
aa(lp6994
F197.09999999999999
aa(lp6995
F966
aa(lp6996
F1816
aa(lp6997
F2553.8000000000002
aa(lp6998
F3119.6999999999998
aa(lp6999
F3466.9000000000001
aa(lp7000
F3564.3000000000002
aa(lp7001
F3262.5999999999999
aa(lp7002
F2031.7
aa(lp7003
F1695.2
aa(lp7004
F1211.5999999999999
aa(lp7005
F353.80000000000001
aa(lp7006
F42
aa(lp7007
F3.3999999999999999
aa(lp7008
F0
aa(lp7009
F0
aa(lp7010
F0
aa(lp7011
F0
aa(lp7012
F0
aa(lp7013
F0
aa(lp7014
F0
aa(lp7015
F0
aa(lp7016
F0
aa(lp7017
F0
aa(lp7018
F128.59999999999999
aa(lp7019
F974.29999999999995
aa(lp7020
F766.29999999999995
aa(lp7021
F2006.7
aa(lp7022
F2649.1999999999998
aa(lp7023
F2312
aa(lp7024
F2025.9000000000001
aa(lp7025
F1328.2
aa(lp7026
F1351.9000000000001
aa(lp7027
F754.29999999999995
aa(lp7028
F614.10000000000002
aa(lp7029
F349.5
aa(lp7030
F62.200000000000003
aa(lp7031
F4
aa(lp7032
F0
aa(lp7033
F0
aa(lp7034
F0
aa(lp7035
F0
aa(lp7036
F0
aa(lp7037
F0
aa(lp7038
F0
aa(lp7039
F0
aa(lp7040
F0
aa(lp7041
F0
aa(lp7042
F194.19999999999999
aa(lp7043
F954.5
aa(lp7044
F1795.3
aa(lp7045
F2526.8000000000002
aa(lp7046
F3110.6999999999998
aa(lp7047
F3475.1999999999998
aa(lp7048
F3435.5999999999999
aa(lp7049
F3172.3000000000002
aa(lp7050
F2385
aa(lp7051
F1850
aa(lp7052
F1027.9000000000001
aa(lp7053
F818.70000000000005
aa(lp7054
F148.19999999999999
aa(lp7055
F6.2000000000000002
aa(lp7056
F0
aa(lp7057
F0
aa(lp7058
F0
aa(lp7059
F0
aa(lp7060
F0
aa(lp7061
F0
aa(lp7062
F0
aa(lp7063
F0
aa(lp7064
F0
aa(lp7065
F0
aa(lp7066
F136.90000000000001
aa(lp7067
F554.20000000000005
aa(lp7068
F1332.0999999999999
aa(lp7069
F1845
aa(lp7070
F1564.2
aa(lp7071
F1809.5
aa(lp7072
F2593.8000000000002
aa(lp7073
F2557
aa(lp7074
F1797.8
aa(lp7075
F2384.8000000000002
aa(lp7076
F1079.5
aa(lp7077
F282.30000000000001
aa(lp7078
F144.30000000000001
aa(lp7079
F9
aa(lp7080
F0
aa(lp7081
F0
aa(lp7082
F0
aa(lp7083
F0
aa(lp7084
F0
aa(lp7085
F0
aa(lp7086
F0
aa(lp7087
F0
aa(lp7088
F0
aa(lp7089
F0
aa(lp7090
F197.5
aa(lp7091
F755.89999999999998
aa(lp7092
F1628.9000000000001
aa(lp7093
F2175.3000000000002
aa(lp7094
F2493.1999999999998
aa(lp7095
F2817.5
aa(lp7096
F3155.5999999999999
aa(lp7097
F2506
aa(lp7098
F2483.3000000000002
aa(lp7099
F2440.1999999999998
aa(lp7100
F1747
aa(lp7101
F756.60000000000002
aa(lp7102
F105.5
aa(lp7103
F4.9000000000000004
aa(lp7104
F0
aa(lp7105
F0
aa(lp7106
F0
aa(lp7107
F0
aa(lp7108
F0
aa(lp7109
F0
aa(lp7110
F0
aa(lp7111
F0
aa(lp7112
F0
aa(lp7113
F0
aa(lp7114
F198.5
aa(lp7115
F946
aa(lp7116
F1467.4000000000001
aa(lp7117
F2396.3000000000002
aa(lp7118
F2571.5
aa(lp7119
F2813.4000000000001
aa(lp7120
F2739.0999999999999
aa(lp7121
F1946.5999999999999
aa(lp7122
F2788.8000000000002
aa(lp7123
F1262.9000000000001
aa(lp7124
F252.5
aa(lp7125
F39.299999999999997
aa(lp7126
F9.3000000000000007
aa(lp7127
F5.9000000000000004
aa(lp7128
F0
aa(lp7129
F0
aa(lp7130
F0
aa(lp7131
F0
aa(lp7132
F0
aa(lp7133
F0
aa(lp7134
F0
aa(lp7135
F0
aa(lp7136
F0
aa(lp7137
F0
aa(lp7138
F17.399999999999999
aa(lp7139
F220.59999999999999
aa(lp7140
F891.10000000000002
aa(lp7141
F1094.9000000000001
aa(lp7142
F652.29999999999995
aa(lp7143
F477.5
aa(lp7144
F801.29999999999995
aa(lp7145
F2164.4000000000001
aa(lp7146
F2936
aa(lp7147
F2226.5
aa(lp7148
F1515.0999999999999
aa(lp7149
F728.29999999999995
aa(lp7150
F102.59999999999999
aa(lp7151
F9
aa(lp7152
F0
aa(lp7153
F0
aa(lp7154
F0
aa(lp7155
F0
aa(lp7156
F0
aa(lp7157
F0
aa(lp7158
F0
aa(lp7159
F0
aa(lp7160
F0
aa(lp7161
F0
aa(lp7162
F185.59999999999999
aa(lp7163
F833.20000000000005
aa(lp7164
F1257.2
aa(lp7165
F2421.8000000000002
aa(lp7166
F2985.8000000000002
aa(lp7167
F3344.5
aa(lp7168
F3430.0999999999999
aa(lp7169
F2684.3000000000002
aa(lp7170
F2353.1999999999998
aa(lp7171
F1396.5999999999999
aa(lp7172
F736.89999999999998
aa(lp7173
F375.80000000000001
aa(lp7174
F88.799999999999997
aa(lp7175
F3.2999999999999998
aa(lp7176
F0
aa(lp7177
F0
aa(lp7178
F0
aa(lp7179
F0
aa(lp7180
F0
aa(lp7181
F0
aa(lp7182
F0
aa(lp7183
F0
aa(lp7184
F0
aa(lp7185
F0
aa(lp7186
F187.09999999999999
aa(lp7187
F585.20000000000005
aa(lp7188
F1321.5999999999999
aa(lp7189
F2321.6999999999998
aa(lp7190
F2920.5
aa(lp7191
F3215
aa(lp7192
F3463.0999999999999
aa(lp7193
F3327.5
aa(lp7194
F2692.1999999999998
aa(lp7195
F2321.6999999999998
aa(lp7196
F1538
aa(lp7197
F422.30000000000001
aa(lp7198
F61.299999999999997
aa(lp7199
F3.2999999999999998
aa(lp7200
F0
aa(lp7201
F0
aa(lp7202
F0
aa(lp7203
F0
aa(lp7204
F0
aa(lp7205
F0
aa(lp7206
F0
aa(lp7207
F0
aa(lp7208
F0
aa(lp7209
F0
aa(lp7210
F185.5
aa(lp7211
F916.79999999999995
aa(lp7212
F1766.4000000000001
aa(lp7213
F2521.9000000000001
aa(lp7214
F3089.8000000000002
aa(lp7215
F3433.5999999999999
aa(lp7216
F3506.1999999999998
aa(lp7217
F3349.5999999999999
aa(lp7218
F2970.3000000000002
aa(lp7219
F2348.5999999999999
aa(lp7220
F1575.2
aa(lp7221
F748
aa(lp7222
F106.59999999999999
aa(lp7223
F4.7999999999999998
aa(lp7224
F0
aa(lp7225
F0
aa(lp7226
F0
aa(lp7227
F0
aa(lp7228
F0
aa(lp7229
F0
aa(lp7230
F0
aa(lp7231
F0
aa(lp7232
F0
aa(lp7233
F0
aa(lp7234
F124.59999999999999
aa(lp7235
F793
aa(lp7236
F1688.3
aa(lp7237
F2297.3000000000002
aa(lp7238
F2785.3000000000002
aa(lp7239
F3347.9000000000001
aa(lp7240
F3348.8000000000002
aa(lp7241
F2967.1999999999998
aa(lp7242
F2735.6999999999998
aa(lp7243
F2070.9000000000001
aa(lp7244
F1269.8
aa(lp7245
F724.60000000000002
aa(lp7246
F125.90000000000001
aa(lp7247
F2.3999999999999999
aa(lp7248
F0
aa(lp7249
F0
aa(lp7250
F0
aa(lp7251
F0
aa(lp7252
F0
aa(lp7253
F0
aa(lp7254
F0
aa(lp7255
F0
aa(lp7256
F0
aa(lp7257
F0
aa(lp7258
F182.30000000000001
aa(lp7259
F973.10000000000002
aa(lp7260
F1819.5999999999999
aa(lp7261
F2494.5999999999999
aa(lp7262
F3083.5
aa(lp7263
F3450.5
aa(lp7264
F3312.3000000000002
aa(lp7265
F3094.9000000000001
aa(lp7266
F2852
aa(lp7267
F2435.0999999999999
aa(lp7268
F1780.7
aa(lp7269
F621.70000000000005
aa(lp7270
F118.3
aa(lp7271
F3.1000000000000001
aa(lp7272
F0
aa(lp7273
F0
aa(lp7274
F0
aa(lp7275
F0
aa(lp7276
F0
aa(lp7277
F0
aa(lp7278
F0
aa(lp7279
F0
aa(lp7280
F0
aa(lp7281
F0
aa(lp7282
F236
aa(lp7283
F967.70000000000005
aa(lp7284
F1795.2
aa(lp7285
F2469.9000000000001
aa(lp7286
F3016.8000000000002
aa(lp7287
F3408
aa(lp7288
F3547.4000000000001
aa(lp7289
F3208.8000000000002
aa(lp7290
F2936.5999999999999
aa(lp7291
F1825.2
aa(lp7292
F1165.5999999999999
aa(lp7293
F659.29999999999995
aa(lp7294
F114.8
aa(lp7295
F1.8999999999999999
aa(lp7296
F0
aa(lp7297
F0
aa(lp7298
F0
aa(lp7299
F0
aa(lp7300
F0
aa(lp7301
F0
aa(lp7302
F0
aa(lp7303
F0
aa(lp7304
F0
aa(lp7305
F0
aa(lp7306
F226.5
aa(lp7307
F852.60000000000002
aa(lp7308
F1752.0999999999999
aa(lp7309
F2460.1999999999998
aa(lp7310
F2971.3000000000002
aa(lp7311
F3308.5999999999999
aa(lp7312
F3437.3000000000002
aa(lp7313
F3055
aa(lp7314
F2202.8000000000002
aa(lp7315
F2138.0999999999999
aa(lp7316
F1417.4000000000001
aa(lp7317
F715.79999999999995
aa(lp7318
F106.5
aa(lp7319
F2.5
aa(lp7320
F0
aa(lp7321
F0
aa(lp7322
F0
aa(lp7323
F0
aa(lp7324
F0
aa(lp7325
F0
aa(lp7326
F0
aa(lp7327
F0
aa(lp7328
F0
aa(lp7329
F0
aa(lp7330
F86.400000000000006
aa(lp7331
F379.5
aa(lp7332
F1464
aa(lp7333
F2165.0999999999999
aa(lp7334
F2885.8000000000002
aa(lp7335
F1964.5999999999999
aa(lp7336
F2020.2
aa(lp7337
F833.5
aa(lp7338
F889.79999999999995
aa(lp7339
F456.89999999999998
aa(lp7340
F343.69999999999999
aa(lp7341
F255.69999999999999
aa(lp7342
F50.5
aa(lp7343
F2.2999999999999998
aa(lp7344
F0
aa(lp7345
F0
aa(lp7346
F0
aa(lp7347
F0
aa(lp7348
F0
aa(lp7349
F0
aa(lp7350
F0
aa(lp7351
F0
aa(lp7352
F0
aa(lp7353
F0
aa(lp7354
F128.40000000000001
aa(lp7355
F409.80000000000001
aa(lp7356
F887.10000000000002
aa(lp7357
F2126.3000000000002
aa(lp7358
F2315
aa(lp7359
F1731.5
aa(lp7360
F1980.0999999999999
aa(lp7361
F2492.5
aa(lp7362
F1692
aa(lp7363
F2332.1999999999998
aa(lp7364
F1487.7
aa(lp7365
F291.5
aa(lp7366
F36.5
aa(lp7367
F10.800000000000001
aa(lp7368
F0
aa(lp7369
F0
aa(lp7370
F0
aa(lp7371
F0
aa(lp7372
F0
aa(lp7373
F0
aa(lp7374
F0
aa(lp7375
F0
aa(lp7376
F0
aa(lp7377
F0
aa(lp7378
F152.69999999999999
aa(lp7379
F1079.0999999999999
aa(lp7380
F1376.8
aa(lp7381
F2476.3000000000002
aa(lp7382
F2832
aa(lp7383
F2722.3000000000002
aa(lp7384
F2700.8000000000002
aa(lp7385
F2248.3000000000002
aa(lp7386
F2048.3000000000002
aa(lp7387
F1824.9000000000001
aa(lp7388
F1389.4000000000001
aa(lp7389
F802.10000000000002
aa(lp7390
F157.80000000000001
aa(lp7391
F3.2999999999999998
aa(lp7392
F0
aa(lp7393
F0
aa(lp7394
F0
aa(lp7395
F0
aa(lp7396
F0
aa(lp7397
F0
aa(lp7398
F0
aa(lp7399
F0
aa(lp7400
F0
aa(lp7401
F0
aa(lp7402
F209.19999999999999
aa(lp7403
F987.29999999999995
aa(lp7404
F1542.3
aa(lp7405
F1943.8
aa(lp7406
F2000.3
aa(lp7407
F2586.8000000000002
aa(lp7408
F2856.4000000000001
aa(lp7409
F2101.5999999999999
aa(lp7410
F2503.1999999999998
aa(lp7411
F1679.3
aa(lp7412
F1212.5
aa(lp7413
F427.10000000000002
aa(lp7414
F81.599999999999994
aa(lp7415
F1.7
aa(lp7416
F0
aa(lp7417
F0
aa(lp7418
F0
aa(lp7419
F0
aa(lp7420
F0
aa(lp7421
F0
aa(lp7422
F0
aa(lp7423
F0
aa(lp7424
F0
aa(lp7425
F0
aa(lp7426
F279.19999999999999
aa(lp7427
F603.10000000000002
aa(lp7428
F1706.5999999999999
aa(lp7429
F2545.1999999999998
aa(lp7430
F2907.5999999999999
aa(lp7431
F2835.1999999999998
aa(lp7432
F2965.0999999999999
aa(lp7433
F1575.2
aa(lp7434
F88.200000000000003
aa(lp7435
F12.6
aa(lp7436
F11.699999999999999
aa(lp7437
F29.300000000000001
aa(lp7438
F22.300000000000001
aa(lp7439
F4.2999999999999998
aa(lp7440
F0
aa(lp7441
F0
aa(lp7442
F0
aa(lp7443
F0
aa(lp7444
F0
aa(lp7445
F0
aa(lp7446
F0
aa(lp7447
F0
aa(lp7448
F0
aa(lp7449
F0
aa(lp7450
F379.19999999999999
aa(lp7451
F1067.5999999999999
aa(lp7452
F1944.8
aa(lp7453
F1836.3
aa(lp7454
F3002.5999999999999
aa(lp7455
F3115.5
aa(lp7456
F2713.6999999999998
aa(lp7457
F1133.3
aa(lp7458
F742
aa(lp7459
F1355
aa(lp7460
F769.79999999999995
aa(lp7461
F708.89999999999998
aa(lp7462
F36.299999999999997
aa(lp7463
F7.7999999999999998
aa(lp7464
F0
aa(lp7465
F0
aa(lp7466
F0
aa(lp7467
F0
aa(lp7468
F0
aa(lp7469
F0
aa(lp7470
F0
aa(lp7471
F0
aa(lp7472
F0
aa(lp7473
F0
aa(lp7474
F264.10000000000002
aa(lp7475
F931.29999999999995
aa(lp7476
F2006.2
aa(lp7477
F2480.3000000000002
aa(lp7478
F2461.9000000000001
aa(lp7479
F2557.4000000000001
aa(lp7480
F2397.8000000000002
aa(lp7481
F3012.4000000000001
aa(lp7482
F1319.4000000000001
aa(lp7483
F299.30000000000001
aa(lp7484
F93.900000000000006
aa(lp7485
F140.5
aa(lp7486
F46
aa(lp7487
F4.2000000000000002
aa(lp7488
F0
aa(lp7489
F0
aa(lp7490
F0
aa(lp7491
F0
aa(lp7492
F0
aa(lp7493
F0
aa(lp7494
F0
aa(lp7495
F0
aa(lp7496
F0
aa(lp7497
F0
aa(lp7498
F189.5
aa(lp7499
F802.79999999999995
aa(lp7500
F1367
aa(lp7501
F1459.5
aa(lp7502
F885.10000000000002
aa(lp7503
F514
aa(lp7504
F1537.4000000000001
aa(lp7505
F846.60000000000002
aa(lp7506
F1424
aa(lp7507
F1186.5
aa(lp7508
F1144.5999999999999
aa(lp7509
F893.10000000000002
aa(lp7510
F122.8
aa(lp7511
F5.4000000000000004
aa(lp7512
F0
aa(lp7513
F0
aa(lp7514
F0
aa(lp7515
F0
aa(lp7516
F0
aa(lp7517
F0
aa(lp7518
F0
aa(lp7519
F0
aa(lp7520
F0
aa(lp7521
F0
aa(lp7522
F194.5
aa(lp7523
F642.70000000000005
aa(lp7524
F683.70000000000005
aa(lp7525
F1248.0999999999999
aa(lp7526
F3019.3000000000002
aa(lp7527
F3790.6999999999998
aa(lp7528
F3238.5999999999999
aa(lp7529
F3246.3000000000002
aa(lp7530
F2653.8000000000002
aa(lp7531
F2172.5999999999999
aa(lp7532
F1309.2
aa(lp7533
F717.10000000000002
aa(lp7534
F138.30000000000001
aa(lp7535
F3.6000000000000001
aa(lp7536
F0
aa(lp7537
F0
aa(lp7538
F0
aa(lp7539
F0
aa(lp7540
F0
aa(lp7541
F0
aa(lp7542
F0
aa(lp7543
F0
aa(lp7544
F0
aa(lp7545
F0
aa(lp7546
F15.800000000000001
aa(lp7547
F33.5
aa(lp7548
F403.10000000000002
aa(lp7549
F1567
aa(lp7550
F2836.8000000000002
aa(lp7551
F2727.4000000000001
aa(lp7552
F2604.4000000000001
aa(lp7553
F3531.8000000000002
aa(lp7554
F2757.9000000000001
aa(lp7555
F2299.4000000000001
aa(lp7556
F1124.7
aa(lp7557
F197.59999999999999
aa(lp7558
F24.800000000000001
aa(lp7559
F3.6000000000000001
aa(lp7560
F0
aa(lp7561
F0
aa(lp7562
F0
aa(lp7563
F0
aa(lp7564
F0
aa(lp7565
F0
aa(lp7566
F0
aa(lp7567
F0
aa(lp7568
F0
aa(lp7569
F0
aa(lp7570
F319.5
aa(lp7571
F1139.7
aa(lp7572
F1897.0999999999999
aa(lp7573
F2629.1999999999998
aa(lp7574
F3036.6999999999998
aa(lp7575
F2216.1999999999998
aa(lp7576
F3523
aa(lp7577
F3360.3000000000002
aa(lp7578
F3317.9000000000001
aa(lp7579
F1336.8
aa(lp7580
F945.79999999999995
aa(lp7581
F336.30000000000001
aa(lp7582
F100.09999999999999
aa(lp7583
F3.8999999999999999
aa(lp7584
F0
aa(lp7585
F0
aa(lp7586
F0
aa(lp7587
F0
aa(lp7588
F0
aa(lp7589
F0
aa(lp7590
F0
aa(lp7591
F0
aa(lp7592
F0
aa(lp7593
F0
aa(lp7594
F292.89999999999998
aa(lp7595
F1126.8
aa(lp7596
F1927.3
aa(lp7597
F2620.6999999999998
aa(lp7598
F3020.6999999999998
aa(lp7599
F2338.0999999999999
aa(lp7600
F2718.3000000000002
aa(lp7601
F1247.8
aa(lp7602
F149.59999999999999
aa(lp7603
F603.10000000000002
aa(lp7604
F1542.3
aa(lp7605
F867.10000000000002
aa(lp7606
F90.400000000000006
aa(lp7607
F2.3999999999999999
aa(lp7608
F0
aa(lp7609
F0
aa(lp7610
F0
aa(lp7611
F0
aa(lp7612
F0
aa(lp7613
F0
aa(lp7614
F0
aa(lp7615
F0
aa(lp7616
F0
aa(lp7617
F0
aa(lp7618
F171.5
aa(lp7619
F832.20000000000005
aa(lp7620
F1927.5999999999999
aa(lp7621
F2789.5999999999999
aa(lp7622
F3202.9000000000001
aa(lp7623
F3361.3000000000002
aa(lp7624
F3585.5999999999999
aa(lp7625
F3233.4000000000001
aa(lp7626
F2587.1999999999998
aa(lp7627
F2288.5999999999999
aa(lp7628
F1752.7
aa(lp7629
F883.89999999999998
aa(lp7630
F92.299999999999997
aa(lp7631
F4.0999999999999996
aa(lp7632
F0
aa(lp7633
F0
aa(lp7634
F0
aa(lp7635
F0
aa(lp7636
F0
aa(lp7637
F0
aa(lp7638
F0
aa(lp7639
F0
aa(lp7640
F0
aa(lp7641
F0
aa(lp7642
F244
aa(lp7643
F1109.0999999999999
aa(lp7644
F1581.9000000000001
aa(lp7645
F2111
aa(lp7646
F3269.0999999999999
aa(lp7647
F3352.5
aa(lp7648
F3109
aa(lp7649
F1909.3
aa(lp7650
F2571.5
aa(lp7651
F2233.8000000000002
aa(lp7652
F1775.2
aa(lp7653
F943.5
aa(lp7654
F197.90000000000001
aa(lp7655
F4.5999999999999996
aa(lp7656
F0
aa(lp7657
F0
aa(lp7658
F0
aa(lp7659
F0
aa(lp7660
F0
aa(lp7661
F0
aa(lp7662
F0
aa(lp7663
F0
aa(lp7664
F0
aa(lp7665
F0
aa(lp7666
F163.30000000000001
aa(lp7667
F980.39999999999998
aa(lp7668
F1838.5999999999999
aa(lp7669
F2688.3000000000002
aa(lp7670
F2779.1999999999998
aa(lp7671
F2956.1999999999998
aa(lp7672
F2501.1999999999998
aa(lp7673
F3072.6999999999998
aa(lp7674
F1474.5
aa(lp7675
F1263.8
aa(lp7676
F1123.0999999999999
aa(lp7677
F588.60000000000002
aa(lp7678
F258.19999999999999
aa(lp7679
F3.5
aa(lp7680
F0
aa(lp7681
F0
aa(lp7682
F0
aa(lp7683
F0
aa(lp7684
F0
aa(lp7685
F0
aa(lp7686
F0
aa(lp7687
F0
aa(lp7688
F0
aa(lp7689
F0
aa(lp7690
F330.30000000000001
aa(lp7691
F1080
aa(lp7692
F1964.5
aa(lp7693
F2655.5
aa(lp7694
F3301.4000000000001
aa(lp7695
F3081.3000000000002
aa(lp7696
F2534.0999999999999
aa(lp7697
F3496.8000000000002
aa(lp7698
F3049
aa(lp7699
F2479.4000000000001
aa(lp7700
F1800
aa(lp7701
F961.70000000000005
aa(lp7702
F204
aa(lp7703
F4.5999999999999996
aa(lp7704
F0
aa(lp7705
F0
aa(lp7706
F0
aa(lp7707
F0
aa(lp7708
F0
aa(lp7709
F0
aa(lp7710
F0
aa(lp7711
F0
aa(lp7712
F0
aa(lp7713
F0
aa(lp7714
F236.5
aa(lp7715
F1127.3
aa(lp7716
F1974.0999999999999
aa(lp7717
F2640.5999999999999
aa(lp7718
F3270.6999999999998
aa(lp7719
F3179.0999999999999
aa(lp7720
F856.29999999999995
aa(lp7721
F1661.8
aa(lp7722
F2718.4000000000001
aa(lp7723
F2660.0999999999999
aa(lp7724
F1721.8
aa(lp7725
F990.39999999999998
aa(lp7726
F202.40000000000001
aa(lp7727
F3.7000000000000002
aa(lp7728
F0
aa(lp7729
F0
aa(lp7730
F0
aa(lp7731
F0
aa(lp7732
F0
aa(lp7733
F0
aa(lp7734
F0
aa(lp7735
F0
aa(lp7736
F0
aa(lp7737
F0
aa(lp7738
F252.80000000000001
aa(lp7739
F1023.1
aa(lp7740
F2005.5999999999999
aa(lp7741
F2745.1999999999998
aa(lp7742
F3277.1999999999998
aa(lp7743
F3579.9000000000001
aa(lp7744
F3599.5
aa(lp7745
F2846.9000000000001
aa(lp7746
F3046.5
aa(lp7747
F2504.6999999999998
aa(lp7748
F1119.3
aa(lp7749
F395.5
aa(lp7750
F90.599999999999994
aa(lp7751
F4.7999999999999998
aa(lp7752
F0
aa(lp7753
F0
aa(lp7754
F0
aa(lp7755
F0
aa(lp7756
F0
aa(lp7757
F0
aa(lp7758
F0
aa(lp7759
F0
aa(lp7760
F0
aa(lp7761
F0
aa(lp7762
F123.40000000000001
aa(lp7763
F828.70000000000005
aa(lp7764
F1301.5
aa(lp7765
F2570.6999999999998
aa(lp7766
F2694.5
aa(lp7767
F2900.8000000000002
aa(lp7768
F2246.5999999999999
aa(lp7769
F3174.5
aa(lp7770
F2415.5
aa(lp7771
F1313.9000000000001
aa(lp7772
F1837.9000000000001
aa(lp7773
F323.10000000000002
aa(lp7774
F7.5
aa(lp7775
F4.4000000000000004
aa(lp7776
F0
aa(lp7777
F0
aa(lp7778
F0
aa(lp7779
F0
aa(lp7780
F0
aa(lp7781
F0
aa(lp7782
F0
aa(lp7783
F0
aa(lp7784
F0
aa(lp7785
F0
aa(lp7786
F119.09999999999999
aa(lp7787
F605.60000000000002
aa(lp7788
F1252.4000000000001
aa(lp7789
F1202.5
aa(lp7790
F1969
aa(lp7791
F1775.4000000000001
aa(lp7792
F1783.0999999999999
aa(lp7793
F2757.3000000000002
aa(lp7794
F2554.5
aa(lp7795
F1987.5999999999999
aa(lp7796
F631.20000000000005
aa(lp7797
F536
aa(lp7798
F178.40000000000001
aa(lp7799
F4.7000000000000002
aa(lp7800
F0
aa(lp7801
F0
aa(lp7802
F0
aa(lp7803
F0
aa(lp7804
F0
aa(lp7805
F0
aa(lp7806
F0
aa(lp7807
F0
aa(lp7808
F0
aa(lp7809
F0
aa(lp7810
F286
aa(lp7811
F1127.2
aa(lp7812
F1909.9000000000001
aa(lp7813
F2634.6999999999998
aa(lp7814
F3216.6999999999998
aa(lp7815
F3410.1999999999998
aa(lp7816
F2400.5999999999999
aa(lp7817
F1335.5999999999999
aa(lp7818
F807.20000000000005
aa(lp7819
F1193.5
aa(lp7820
F727.60000000000002
aa(lp7821
F517
aa(lp7822
F179.90000000000001
aa(lp7823
F2.7000000000000002
aa(lp7824
F0
aa(lp7825
F0
aa(lp7826
F0
aa(lp7827
F0
aa(lp7828
F0
aa(lp7829
F0
aa(lp7830
F0
aa(lp7831
F0
aa(lp7832
F0
aa(lp7833
F0
aa(lp7834
F294.80000000000001
aa(lp7835
F1047
aa(lp7836
F1862.7
aa(lp7837
F2586.6999999999998
aa(lp7838
F3151.9000000000001
aa(lp7839
F3333.9000000000001
aa(lp7840
F3351.6999999999998
aa(lp7841
F3341.9000000000001
aa(lp7842
F3175.5
aa(lp7843
F1658.5
aa(lp7844
F1324.9000000000001
aa(lp7845
F890
aa(lp7846
F233.69999999999999
aa(lp7847
F4
aa(lp7848
F0
aa(lp7849
F0
aa(lp7850
F0
aa(lp7851
F0
aa(lp7852
F0
aa(lp7853
F0
aa(lp7854
F0
aa(lp7855
F0
aa(lp7856
F0
aa(lp7857
F0
aa(lp7858
F349
aa(lp7859
F1095.9000000000001
aa(lp7860
F1381.8
aa(lp7861
F2252.4000000000001
aa(lp7862
F1818.3
aa(lp7863
F2157
aa(lp7864
F2586.1999999999998
aa(lp7865
F2575.8000000000002
aa(lp7866
F2857.6999999999998
aa(lp7867
F2001.5999999999999
aa(lp7868
F225.5
aa(lp7869
F506.10000000000002
aa(lp7870
F79.400000000000006
aa(lp7871
F5.7000000000000002
aa(lp7872
F0
aa(lp7873
F0
aa(lp7874
F0
aa(lp7875
F0
aa(lp7876
F0
aa(lp7877
F0
aa(lp7878
F0
aa(lp7879
F0
aa(lp7880
F0
aa(lp7881
F0
aa(lp7882
F18.600000000000001
aa(lp7883
F38.200000000000003
aa(lp7884
F127
aa(lp7885
F1000.8
aa(lp7886
F1771.9000000000001
aa(lp7887
F1705
aa(lp7888
F2887
aa(lp7889
F2207.9000000000001
aa(lp7890
F2942
aa(lp7891
F2604.1999999999998
aa(lp7892
F1196.5
aa(lp7893
F1294.5
aa(lp7894
F143.30000000000001
aa(lp7895
F3.2999999999999998
aa(lp7896
F0
aa(lp7897
F0
aa(lp7898
F0
aa(lp7899
F0
aa(lp7900
F0
aa(lp7901
F0
aa(lp7902
F0
aa(lp7903
F0
aa(lp7904
F0
aa(lp7905
F0
aa(lp7906
F97.900000000000006
aa(lp7907
F206.09999999999999
aa(lp7908
F1020.8
aa(lp7909
F1335.4000000000001
aa(lp7910
F1538.2
aa(lp7911
F2647.1999999999998
aa(lp7912
F2576.4000000000001
aa(lp7913
F3637.1999999999998
aa(lp7914
F2615.1999999999998
aa(lp7915
F2553.9000000000001
aa(lp7916
F1287.4000000000001
aa(lp7917
F1018.9
aa(lp7918
F274.10000000000002
aa(lp7919
F4.0999999999999996
aa(lp7920
F0
aa(lp7921
F0
aa(lp7922
F0
aa(lp7923
F0
aa(lp7924
F0
aa(lp7925
F0
aa(lp7926
F0
aa(lp7927
F0
aa(lp7928
F0
aa(lp7929
F0
aa(lp7930
F260
aa(lp7931
F781.10000000000002
aa(lp7932
F1200.5
aa(lp7933
F2701.9000000000001
aa(lp7934
F3302.5999999999999
aa(lp7935
F3634.5999999999999
aa(lp7936
F3844.5999999999999
aa(lp7937
F3685.9000000000001
aa(lp7938
F2682.5999999999999
aa(lp7939
F2019.0999999999999
aa(lp7940
F1240.0999999999999
aa(lp7941
F733
aa(lp7942
F284.89999999999998
aa(lp7943
F3.1000000000000001
aa(lp7944
F0
aa(lp7945
F0
aa(lp7946
F0
aa(lp7947
F0
aa(lp7948
F0
aa(lp7949
F0
aa(lp7950
F0
aa(lp7951
F0
aa(lp7952
F0
aa(lp7953
F0
aa(lp7954
F348.60000000000002
aa(lp7955
F1042.0999999999999
aa(lp7956
F1969.4000000000001
aa(lp7957
F2156
aa(lp7958
F2189.3000000000002
aa(lp7959
F2373.5999999999999
aa(lp7960
F2577.4000000000001
aa(lp7961
F2228.5
aa(lp7962
F1926.8
aa(lp7963
F1320.7
aa(lp7964
F1290.9000000000001
aa(lp7965
F793.10000000000002
aa(lp7966
F119.90000000000001
aa(lp7967
F6.7999999999999998
aa(lp7968
F0
aa(lp7969
F0
aa(lp7970
F0
aa(lp7971
F0
aa(lp7972
F0
aa(lp7973
F0
aa(lp7974
F0
aa(lp7975
F0
aa(lp7976
F0
aa(lp7977
F0
aa(lp7978
F234.80000000000001
aa(lp7979
F965.60000000000002
aa(lp7980
F1710.3
aa(lp7981
F2549
aa(lp7982
F3558.1999999999998
aa(lp7983
F3670.5
aa(lp7984
F3775.4000000000001
aa(lp7985
F3626.5
aa(lp7986
F3267.9000000000001
aa(lp7987
F2657.6999999999998
aa(lp7988
F1687.9000000000001
aa(lp7989
F723.89999999999998
aa(lp7990
F211.30000000000001
aa(lp7991
F2.2999999999999998
aa(lp7992
F0
aa(lp7993
F0
aa(lp7994
F0
aa(lp7995
F0
aa(lp7996
F0
aa(lp7997
F0
aa(lp7998
F0
aa(lp7999
F0
aa(lp8000
F0
aa(lp8001
F0
aa(lp8002
F344.39999999999998
aa(lp8003
F1112.3
aa(lp8004
F1984.5
aa(lp8005
F2650
aa(lp8006
F3188.0999999999999
aa(lp8007
F2631
aa(lp8008
F2677.5
aa(lp8009
F1047.4000000000001
aa(lp8010
F692.70000000000005
aa(lp8011
F233
aa(lp8012
F302.60000000000002
aa(lp8013
F121
aa(lp8014
F80.5
aa(lp8015
F2
aa(lp8016
F0
aa(lp8017
F0
aa(lp8018
F0
aa(lp8019
F0
aa(lp8020
F0
aa(lp8021
F0
aa(lp8022
F0
aa(lp8023
F0
aa(lp8024
F0
aa(lp8025
F0
aa(lp8026
F15.1
aa(lp8027
F101.3
aa(lp8028
F463.80000000000001
aa(lp8029
F906.60000000000002
aa(lp8030
F1656.8
aa(lp8031
F3753.9000000000001
aa(lp8032
F3769.8000000000002
aa(lp8033
F3016
aa(lp8034
F2505.9000000000001
aa(lp8035
F1660.7
aa(lp8036
F1304.5
aa(lp8037
F599.89999999999998
aa(lp8038
F248.09999999999999
aa(lp8039
F5
aa(lp8040
F0
aa(lp8041
F0
aa(lp8042
F0
aa(lp8043
F0
aa(lp8044
F0
aa(lp8045
F0
aa(lp8046
F0
aa(lp8047
F0
aa(lp8048
F0
aa(lp8049
F0
aa(lp8050
F300.19999999999999
aa(lp8051
F904.10000000000002
aa(lp8052
F1665.9000000000001
aa(lp8053
F2704.4000000000001
aa(lp8054
F3173.3000000000002
aa(lp8055
F2756.5999999999999
aa(lp8056
F1819.9000000000001
aa(lp8057
F1406.3
aa(lp8058
F888.10000000000002
aa(lp8059
F1037.7
aa(lp8060
F927.60000000000002
aa(lp8061
F662.5
aa(lp8062
F162.30000000000001
aa(lp8063
F3
aa(lp8064
F0
aa(lp8065
F0
aa(lp8066
F0
aa(lp8067
F0
aa(lp8068
F0
aa(lp8069
F0
aa(lp8070
F0
aa(lp8071
F0
aa(lp8072
F0
aa(lp8073
F0
aa(lp8074
F339.5
aa(lp8075
F949.60000000000002
aa(lp8076
F1894.3
aa(lp8077
F2564.4000000000001
aa(lp8078
F2713.5
aa(lp8079
F3184.8000000000002
aa(lp8080
F3462.6999999999998
aa(lp8081
F3412
aa(lp8082
F3002.5
aa(lp8083
F2431.5999999999999
aa(lp8084
F1117.7
aa(lp8085
F786.89999999999998
aa(lp8086
F193.59999999999999
aa(lp8087
F4
aa(lp8088
F0
aa(lp8089
F0
aa(lp8090
F0
aa(lp8091
F0
aa(lp8092
F0
aa(lp8093
F0
aa(lp8094
F0
aa(lp8095
F0
aa(lp8096
F0
aa(lp8097
F0
aa(lp8098
F323.10000000000002
aa(lp8099
F1121.9000000000001
aa(lp8100
F1961.2
aa(lp8101
F2657
aa(lp8102
F3165.4000000000001
aa(lp8103
F3537.4000000000001
aa(lp8104
F3479.5999999999999
aa(lp8105
F3007
aa(lp8106
F3281.8000000000002
aa(lp8107
F2734.4000000000001
aa(lp8108
F1981.5999999999999
aa(lp8109
F1136.9000000000001
aa(lp8110
F258.60000000000002
aa(lp8111
F3
aa(lp8112
F0
aa(lp8113
F0
aa(lp8114
F0
aa(lp8115
F0
aa(lp8116
F0
aa(lp8117
F0
aa(lp8118
F0
aa(lp8119
F0
aa(lp8120
F0
aa(lp8121
F0
aa(lp8122
F219.90000000000001
aa(lp8123
F826.89999999999998
aa(lp8124
F1874
aa(lp8125
F2399
aa(lp8126
F2981
aa(lp8127
F3610.9000000000001
aa(lp8128
F3708.8000000000002
aa(lp8129
F2977.3000000000002
aa(lp8130
F2191.0999999999999
aa(lp8131
F749.10000000000002
aa(lp8132
F547.10000000000002
aa(lp8133
F337.39999999999998
aa(lp8134
F192
aa(lp8135
F2.5
aa(lp8136
F0
aa(lp8137
F0
aa(lp8138
F0
aa(lp8139
F0
aa(lp8140
F0
aa(lp8141
F0
aa(lp8142
F0
aa(lp8143
F0
aa(lp8144
F0
aa(lp8145
F0
aa(lp8146
F266.5
aa(lp8147
F1098.5999999999999
aa(lp8148
F1921.5
aa(lp8149
F2590.4000000000001
aa(lp8150
F3228.4000000000001
aa(lp8151
F3176.0999999999999
aa(lp8152
F3450.3000000000002
aa(lp8153
F3331.8000000000002
aa(lp8154
F3210.5
aa(lp8155
F2614.1999999999998
aa(lp8156
F985.10000000000002
aa(lp8157
F443.19999999999999
aa(lp8158
F100
aa(lp8159
F6.2000000000000002
aa(lp8160
F0
aa(lp8161
F0
aa(lp8162
F0
aa(lp8163
F0
aa(lp8164
F0
aa(lp8165
F0
aa(lp8166
F0
aa(lp8167
F0
aa(lp8168
F0
aa(lp8169
F0
aa(lp8170
F321.39999999999998
aa(lp8171
F1149.8
aa(lp8172
F1977.5
aa(lp8173
F2695
aa(lp8174
F3287.4000000000001
aa(lp8175
F3434.5999999999999
aa(lp8176
F3456.9000000000001
aa(lp8177
F3306.5
aa(lp8178
F2735.9000000000001
aa(lp8179
F2473.1999999999998
aa(lp8180
F1582.8
aa(lp8181
F718.39999999999998
aa(lp8182
F341.39999999999998
aa(lp8183
F2.7000000000000002
aa(lp8184
F0
aa(lp8185
F0
aa(lp8186
F0
aa(lp8187
F0
aa(lp8188
F0
aa(lp8189
F0
aa(lp8190
F0
aa(lp8191
F0
aa(lp8192
F0
aa(lp8193
F0
aa(lp8194
F251.80000000000001
aa(lp8195
F1105.2
aa(lp8196
F1541.7
aa(lp8197
F1873.2
aa(lp8198
F2661.9000000000001
aa(lp8199
F2602.5
aa(lp8200
F2611.4000000000001
aa(lp8201
F2932.3000000000002
aa(lp8202
F2643.5999999999999
aa(lp8203
F2389
aa(lp8204
F1614.4000000000001
aa(lp8205
F763.5
aa(lp8206
F339.69999999999999
aa(lp8207
F2.8999999999999999
aa(lp8208
F0
aa(lp8209
F0
aa(lp8210
F0
aa(lp8211
F0
aa(lp8212
F0
aa(lp8213
F0
aa(lp8214
F0
aa(lp8215
F0
aa(lp8216
F0
aa(lp8217
F0
aa(lp8218
F308.60000000000002
aa(lp8219
F1084.0999999999999
aa(lp8220
F1907.3
aa(lp8221
F2647.3000000000002
aa(lp8222
F3221.4000000000001
aa(lp8223
F3309.4000000000001
aa(lp8224
F3732
aa(lp8225
F1741.2
aa(lp8226
F2371.1999999999998
aa(lp8227
F2246.8000000000002
aa(lp8228
F1934.9000000000001
aa(lp8229
F1164.8
aa(lp8230
F159
aa(lp8231
F1.5
aa(lp8232
F0
aa(lp8233
F0
aa(lp8234
F0
aa(lp8235
F0
aa(lp8236
F0
aa(lp8237
F0
aa(lp8238
F0
aa(lp8239
F0
aa(lp8240
F0
aa(lp8241
F0
aa(lp8242
F168.59999999999999
aa(lp8243
F725
aa(lp8244
F2026.0999999999999
aa(lp8245
F3058
aa(lp8246
F3382
aa(lp8247
F3067.1999999999998
aa(lp8248
F3224.4000000000001
aa(lp8249
F3890.9000000000001
aa(lp8250
F2351.5999999999999
aa(lp8251
F2584.5
aa(lp8252
F866.10000000000002
aa(lp8253
F324.80000000000001
aa(lp8254
F231.69999999999999
aa(lp8255
F5.0999999999999996
aa(lp8256
F0
aa(lp8257
F0
aa(lp8258
F0
aa(lp8259
F0
aa(lp8260
F0
aa(lp8261
F0
aa(lp8262
F0
aa(lp8263
F0
aa(lp8264
F0
aa(lp8265
F0
aa(lp8266
F271.60000000000002
aa(lp8267
F795.79999999999995
aa(lp8268
F1825.7
aa(lp8269
F2672.1999999999998
aa(lp8270
F3027.9000000000001
aa(lp8271
F2704
aa(lp8272
F3526.5999999999999
aa(lp8273
F3387.9000000000001
aa(lp8274
F2888.5
aa(lp8275
F2368.4000000000001
aa(lp8276
F1039
aa(lp8277
F1145.5
aa(lp8278
F311.69999999999999
aa(lp8279
F2.7000000000000002
aa(lp8280
F0
aa(lp8281
F0
aa(lp8282
F0
aa(lp8283
F0
aa(lp8284
F0
aa(lp8285
F0
aa(lp8286
F0
aa(lp8287
F0
aa(lp8288
F0
aa(lp8289
F0
aa(lp8290
F161.5
aa(lp8291
F391.69999999999999
aa(lp8292
F1749.3
aa(lp8293
F2543.5
aa(lp8294
F3077.4000000000001
aa(lp8295
F3090.4000000000001
aa(lp8296
F2437.9000000000001
aa(lp8297
F3094.5999999999999
aa(lp8298
F2524.6999999999998
aa(lp8299
F2266.1999999999998
aa(lp8300
F1998.7
aa(lp8301
F595.70000000000005
aa(lp8302
F63
aa(lp8303
F14.300000000000001
aa(lp8304
F0
aa(lp8305
F0
aa(lp8306
F0
aa(lp8307
F0
aa(lp8308
F0
aa(lp8309
F0
aa(lp8310
F0
aa(lp8311
F0
aa(lp8312
F0
aa(lp8313
F0
aa(lp8314
F113.5
aa(lp8315
F728.79999999999995
aa(lp8316
F2328.0999999999999
aa(lp8317
F2682.5999999999999
aa(lp8318
F3174.3000000000002
aa(lp8319
F3362.0999999999999
aa(lp8320
F2750.6999999999998
aa(lp8321
F2403.4000000000001
aa(lp8322
F968.39999999999998
aa(lp8323
F652.60000000000002
aa(lp8324
F569
aa(lp8325
F283.39999999999998
aa(lp8326
F145.40000000000001
aa(lp8327
F6.2999999999999998
aa(lp8328
F0
aa(lp8329
F0
aa(lp8330
F0
aa(lp8331
F0
aa(lp8332
F0
aa(lp8333
F0
aa(lp8334
F0
aa(lp8335
F0
aa(lp8336
F0
aa(lp8337
F0
aa(lp8338
F213.19999999999999
aa(lp8339
F1097.5999999999999
aa(lp8340
F1896.8
aa(lp8341
F2300.3000000000002
aa(lp8342
F3065
aa(lp8343
F3269.3000000000002
aa(lp8344
F1695.7
aa(lp8345
F874.89999999999998
aa(lp8346
F719.5
aa(lp8347
F150.5
aa(lp8348
F93.599999999999994
aa(lp8349
F89.200000000000003
aa(lp8350
F56.100000000000001
aa(lp8351
F2.7000000000000002
aa(lp8352
F0
aa(lp8353
F0
aa(lp8354
F0
aa(lp8355
F0
aa(lp8356
F0
aa(lp8357
F0
aa(lp8358
F0
aa(lp8359
F0
aa(lp8360
F0
aa(lp8361
F0
aa(lp8362
F126.09999999999999
aa(lp8363
F652.70000000000005
aa(lp8364
F701.5
aa(lp8365
F547.60000000000002
aa(lp8366
F1479.7
aa(lp8367
F2865.5999999999999
aa(lp8368
F2895.6999999999998
aa(lp8369
F3206.5
aa(lp8370
F2738.8000000000002
aa(lp8371
F2212.8000000000002
aa(lp8372
F1575.0999999999999
aa(lp8373
F593.79999999999995
aa(lp8374
F511.30000000000001
aa(lp8375
F3.2000000000000002
aa(lp8376
F0
aa(lp8377
F0
aa(lp8378
F0
aa(lp8379
F0
aa(lp8380
F0
aa(lp8381
F0
aa(lp8382
F0
aa(lp8383
F0
aa(lp8384
F0
aa(lp8385
F0
aa(lp8386
F331.10000000000002
aa(lp8387
F644.10000000000002
aa(lp8388
F822.39999999999998
aa(lp8389
F900.20000000000005
aa(lp8390
F1900.2
aa(lp8391
F3018.6999999999998
aa(lp8392
F2587
aa(lp8393
F1787.2
aa(lp8394
F487.89999999999998
aa(lp8395
F902.60000000000002
aa(lp8396
F1412.0999999999999
aa(lp8397
F804.20000000000005
aa(lp8398
F304.5
aa(lp8399
F4
aa(lp8400
F0
aa(lp8401
F0
aa(lp8402
F0
aa(lp8403
F0
aa(lp8404
F0
aa(lp8405
F0
aa(lp8406
F0
aa(lp8407
F0
aa(lp8408
F0
aa(lp8409
F0
aa(lp8410
F30.699999999999999
aa(lp8411
F133.59999999999999
aa(lp8412
F311.10000000000002
aa(lp8413
F739.89999999999998
aa(lp8414
F1217.0999999999999
aa(lp8415
F2265.3000000000002
aa(lp8416
F1827.5999999999999
aa(lp8417
F2556.9000000000001
aa(lp8418
F2324.1999999999998
aa(lp8419
F1047
aa(lp8420
F464.39999999999998
aa(lp8421
F868.39999999999998
aa(lp8422
F167.40000000000001
aa(lp8423
F6.2999999999999998
aa(lp8424
F0
aa(lp8425
F0
aa(lp8426
F0
aa(lp8427
F0
aa(lp8428
F0
aa(lp8429
F0
aa(lp8430
F0
aa(lp8431
F0
aa(lp8432
F0
aa(lp8433
F0
aa(lp8434
F35.200000000000003
aa(lp8435
F395.89999999999998
aa(lp8436
F838.29999999999995
aa(lp8437
F615.5
aa(lp8438
F348
aa(lp8439
F376.80000000000001
aa(lp8440
F232.30000000000001
aa(lp8441
F301.60000000000002
aa(lp8442
F483.19999999999999
aa(lp8443
F394.89999999999998
aa(lp8444
F325.60000000000002
aa(lp8445
F233.40000000000001
aa(lp8446
F88.599999999999994
aa(lp8447
F3.8999999999999999
aa(lp8448
F0
aa(lp8449
F0
aa(lp8450
F0
aa(lp8451
F0
aa(lp8452
F0
aa(lp8453
F0
aa(lp8454
F0
aa(lp8455
F0
aa(lp8456
F0
aa(lp8457
F0
aa(lp8458
F218.09999999999999
aa(lp8459
F455.80000000000001
aa(lp8460
F1037.9000000000001
aa(lp8461
F1887.7
aa(lp8462
F2068.5
aa(lp8463
F2867.3000000000002
aa(lp8464
F2543.9000000000001
aa(lp8465
F3401.6999999999998
aa(lp8466
F3078.6999999999998
aa(lp8467
F2303
aa(lp8468
F1654.5
aa(lp8469
F950.39999999999998
aa(lp8470
F416.89999999999998
aa(lp8471
F4.2999999999999998
aa(lp8472
F0
aa(lp8473
F0
aa(lp8474
F0
aa(lp8475
F0
aa(lp8476
F0
aa(lp8477
F0
aa(lp8478
F0
aa(lp8479
F0
aa(lp8480
F0
aa(lp8481
F0
aa(lp8482
F134.5
aa(lp8483
F1084.7
aa(lp8484
F1278.5999999999999
aa(lp8485
F2637.5999999999999
aa(lp8486
F2987.9000000000001
aa(lp8487
F3550.0999999999999
aa(lp8488
F3076.9000000000001
aa(lp8489
F3097.3000000000002
aa(lp8490
F2990
aa(lp8491
F1894.4000000000001
aa(lp8492
F1290.4000000000001
aa(lp8493
F838.10000000000002
aa(lp8494
F368.69999999999999
aa(lp8495
F7.5999999999999996
aa(lp8496
F0
aa(lp8497
F0
aa(lp8498
F0
aa(lp8499
F0
aa(lp8500
F0
aa(lp8501
F0
aa(lp8502
F0
aa(lp8503
F0
aa(lp8504
F0
aa(lp8505
F0
aa(lp8506
F288.5
aa(lp8507
F805.29999999999995
aa(lp8508
F888.20000000000005
aa(lp8509
F2297.9000000000001
aa(lp8510
F3171.5
aa(lp8511
F3454.5999999999999
aa(lp8512
F3416.6999999999998
aa(lp8513
F3236
aa(lp8514
F3463.5999999999999
aa(lp8515
F1136.5999999999999
aa(lp8516
F1402.2
aa(lp8517
F686.10000000000002
aa(lp8518
F142.5
aa(lp8519
F3.2000000000000002
aa(lp8520
F0
aa(lp8521
F0
aa(lp8522
F0
aa(lp8523
F0
aa(lp8524
F0
aa(lp8525
F0
aa(lp8526
F0
aa(lp8527
F0
aa(lp8528
F0
aa(lp8529
F0
aa(lp8530
F216.40000000000001
aa(lp8531
F1015.9
aa(lp8532
F1821.8
aa(lp8533
F2639.4000000000001
aa(lp8534
F3149.5
aa(lp8535
F2764.5
aa(lp8536
F2616.0999999999999
aa(lp8537
F3505
aa(lp8538
F3147.1999999999998
aa(lp8539
F2928.4000000000001
aa(lp8540
F2062.1999999999998
aa(lp8541
F1164.3
aa(lp8542
F362.30000000000001
aa(lp8543
F3
aa(lp8544
F0
aa(lp8545
F0
aa(lp8546
F0
aa(lp8547
F0
aa(lp8548
F0
aa(lp8549
F0
aa(lp8550
F0
aa(lp8551
F0
aa(lp8552
F0
aa(lp8553
F0
aa(lp8554
F235.09999999999999
aa(lp8555
F1016.4
aa(lp8556
F1703.5
aa(lp8557
F2408.0999999999999
aa(lp8558
F2837.3000000000002
aa(lp8559
F3037.9000000000001
aa(lp8560
F3855
aa(lp8561
F2063
aa(lp8562
F181
aa(lp8563
F79.400000000000006
aa(lp8564
F97.700000000000003
aa(lp8565
F103.90000000000001
aa(lp8566
F111.09999999999999
aa(lp8567
F1.6000000000000001
aa(lp8568
F0
aa(lp8569
F0
aa(lp8570
F0
aa(lp8571
F0
aa(lp8572
F0
aa(lp8573
F0
aa(lp8574
F0
aa(lp8575
F0
aa(lp8576
F0
aa(lp8577
F0
aa(lp8578
F148.69999999999999
aa(lp8579
F659.5
aa(lp8580
F853.79999999999995
aa(lp8581
F1524.7
aa(lp8582
F1532.4000000000001
aa(lp8583
F2058.5999999999999
aa(lp8584
F2773.1999999999998
aa(lp8585
F2795.0999999999999
aa(lp8586
F2681.3000000000002
aa(lp8587
F2213.1999999999998
aa(lp8588
F1564
aa(lp8589
F84.299999999999997
aa(lp8590
F95.200000000000003
aa(lp8591
F3.5
aa(lp8592
F0
aa(lp8593
F0
aa(lp8594
F0
aa(lp8595
F0
aa(lp8596
F0
aa(lp8597
F0
aa(lp8598
F0
aa(lp8599
F0
aa(lp8600
F0
aa(lp8601
F0
aa(lp8602
F147.40000000000001
aa(lp8603
F726.29999999999995
aa(lp8604
F1364.7
aa(lp8605
F2087.1999999999998
aa(lp8606
F2005.5
aa(lp8607
F3144.3000000000002
aa(lp8608
F3326
aa(lp8609
F3400.3000000000002
aa(lp8610
F1358.0999999999999
aa(lp8611
F784.79999999999995
aa(lp8612
F1618.4000000000001
aa(lp8613
F1485.8
aa(lp8614
F285.10000000000002
aa(lp8615
F2.7999999999999998
aa(lp8616
F0
aa(lp8617
F0
aa(lp8618
F0
aa(lp8619
F0
aa(lp8620
F0
aa(lp8621
F0
aa(lp8622
F0
aa(lp8623
F0
aa(lp8624
F0
aa(lp8625
F0
aa(lp8626
F235.5
aa(lp8627
F1001
aa(lp8628
F1844
aa(lp8629
F2571.9000000000001
aa(lp8630
F3048.5
aa(lp8631
F3433.8000000000002
aa(lp8632
F3504.8000000000002
aa(lp8633
F3319.4000000000001
aa(lp8634
F2589.8000000000002
aa(lp8635
F2326.9000000000001
aa(lp8636
F2044.3
aa(lp8637
F1295.5
aa(lp8638
F594.70000000000005
aa(lp8639
F9.5
aa(lp8640
F0
aa(lp8641
F0
aa(lp8642
F0
aa(lp8643
F0
aa(lp8644
F0
aa(lp8645
F0
aa(lp8646
F0
aa(lp8647
F0
aa(lp8648
F0
aa(lp8649
F0
aa(lp8650
F84.200000000000003
aa(lp8651
F826.39999999999998
aa(lp8652
F1817.5999999999999
aa(lp8653
F2559.9000000000001
aa(lp8654
F3122.1999999999998
aa(lp8655
F3365.8000000000002
aa(lp8656
F3324.0999999999999
aa(lp8657
F2869.8000000000002
aa(lp8658
F3116.0999999999999
aa(lp8659
F2605.5
aa(lp8660
F2089.8000000000002
aa(lp8661
F1145.9000000000001
aa(lp8662
F438.19999999999999
aa(lp8663
F3.5
aa(lp8664
F0
aa(lp8665
F0
aa(lp8666
F0
aa(lp8667
F0
aa(lp8668
F0
aa(lp8669
F0
aa(lp8670
F0
aa(lp8671
F0
aa(lp8672
F0
aa(lp8673
F0
aa(lp8674
F164
aa(lp8675
F380.19999999999999
aa(lp8676
F849.70000000000005
aa(lp8677
F1066.2
aa(lp8678
F2558.0999999999999
aa(lp8679
F3406
aa(lp8680
F3561.5
aa(lp8681
F3615.5
aa(lp8682
F2975.0999999999999
aa(lp8683
F2725.6999999999998
aa(lp8684
F2118.9000000000001
aa(lp8685
F1337.9000000000001
aa(lp8686
F610.70000000000005
aa(lp8687
F2
aa(lp8688
F0
aa(lp8689
F0
aa(lp8690
F0
aa(lp8691
F0
aa(lp8692
F0
aa(lp8693
F0
aa(lp8694
F0
aa(lp8695
F0
aa(lp8696
F0
aa(lp8697
F0
aa(lp8698
F208.19999999999999
aa(lp8699
F730.20000000000005
aa(lp8700
F798.10000000000002
aa(lp8701
F1299.9000000000001
aa(lp8702
F1663.5999999999999
aa(lp8703
F2369
aa(lp8704
F3422.0999999999999
aa(lp8705
F3486.6999999999998
aa(lp8706
F2994.1999999999998
aa(lp8707
F2977.5999999999999
aa(lp8708
F2040.5999999999999
aa(lp8709
F516.79999999999995
aa(lp8710
F205.90000000000001
aa(lp8711
F2
aa(lp8712
F0
aa(lp8713
F0
aa(lp8714
F0
aa(lp8715
F0
aa(lp8716
F0
aa(lp8717
F0
aa(lp8718
F0
aa(lp8719
F0
aa(lp8720
F0
aa(lp8721
F0
aa(lp8722
F68
aa(lp8723
F213.59999999999999
aa(lp8724
F494.69999999999999
aa(lp8725
F849.29999999999995
aa(lp8726
F1376.0999999999999
aa(lp8727
F2164.9000000000001
aa(lp8728
F2193.5
aa(lp8729
F3783.6999999999998
aa(lp8730
F2906.5999999999999
aa(lp8731
F2739.9000000000001
aa(lp8732
F2057.4000000000001
aa(lp8733
F981.89999999999998
aa(lp8734
F419.69999999999999
aa(lp8735
F8.0999999999999996
aa(lp8736
F0
aa(lp8737
F0
aa(lp8738
F0
aa(lp8739
F0
aa(lp8740
F0
aa(lp8741
F0
aa(lp8742
F0
aa(lp8743
F0
aa(lp8744
F0
aa(lp8745
F0
aa(lp8746
F101.2
aa(lp8747
F355.69999999999999
aa(lp8748
F975.10000000000002
aa(lp8749
F1408
aa(lp8750
F2065.5999999999999
aa(lp8751
F2242.9000000000001
aa(lp8752
F3197.5
aa(lp8753
F2970.3000000000002
aa(lp8754
F1293
aa(lp8755
F152.90000000000001
aa(lp8756
F112.5
aa(lp8757
F104.09999999999999
aa(lp8758
F81.099999999999994
aa(lp8759
F1.7
aa(lp8760
F0
aa(lp8761
F0
aa(lp8762
F0
aa(lp8763
F0
aa(lp8764
F0
aa(lp8765
F0
aa(lp8766
F0
aa(lp8767
F0
aa(lp8768
F0
aa(lp8769
F0
aa(lp8770
F134.40000000000001
aa(lp8771
F469.30000000000001
aa(lp8772
F1516.4000000000001
aa(lp8773
F1766.9000000000001
aa(lp8774
F2393.5
aa(lp8775
F3017.8000000000002
aa(lp8776
F3481.9000000000001
aa(lp8777
F3417.4000000000001
aa(lp8778
F3012.9000000000001
aa(lp8779
F2636
aa(lp8780
F2084.5999999999999
aa(lp8781
F1177.2
aa(lp8782
F341.60000000000002
aa(lp8783
F4.4000000000000004
aa(lp8784
F0
aa.